ARM Linker, 5.01 [Build 94] 

==============================================================================

Image Symbol Table

    Local Symbols

    Symbol Name                              Value     Ov Type        Size  Object(Section)

    TZAPPENTRYCODE                           0x00000000   Section      124  tzapp_entry.o(TZAPPENTRYCODE)
    ../clib/angel/rt.s                       0x00000000   Number         0  rt_ctype_table.o ABSOLUTE
    ../clib/angel/rt.s                       0x00000000   Number         0  rt_div0.o ABSOLUTE
    ../clib/angel/rt.s                       0x00000000   Number         0  rt_raise.o ABSOLUTE
    ../clib/angel/rt.s                       0x00000000   Number         0  rt_heap_descriptor.o ABSOLUTE
    ../clib/angel/rt.s                       0x00000000   Number         0  rt_heap_descriptor_intlibspace.o ABSOLUTE
    ../clib/angel/rt.s                       0x00000000   Number         0  aeabi_ldiv0.o ABSOLUTE
    ../clib/angel/rt.s                       0x00000000   Number         0  aeabi_ldiv0_sigfpe.o ABSOLUTE
    ../clib/angel/rt.s                       0x00000000   Number         0  rt_errno_addr.o ABSOLUTE
    ../clib/angel/rt.s                       0x00000000   Number         0  aeabi_idiv0.o ABSOLUTE
    ../clib/angel/rt.s                       0x00000000   Number         0  rt_locale_intlibspace.o ABSOLUTE
    ../clib/angel/rt.s                       0x00000000   Number         0  rt_locale.o ABSOLUTE
    ../clib/angel/rt.s                       0x00000000   Number         0  aeabi_idiv0_sigfpe.o ABSOLUTE
    ../clib/angel/rt.s                       0x00000000   Number         0  rt_errno_addr_intlibspace.o ABSOLUTE
    ../clib/angel/sys.s                      0x00000000   Number         0  libspace.o ABSOLUTE
    ../clib/angel/sys.s                      0x00000000   Number         0  mutex_dummy.o ABSOLUTE
    ../clib/angel/sys.s                      0x00000000   Number         0  indicate_semi.o ABSOLUTE
    ../clib/angel/sys.s                      0x00000000   Number         0  use_no_semi.o ABSOLUTE
    ../clib/angel/sysapp.c                   0x00000000   Number         0  sys_exit.o ABSOLUTE
    ../clib/angel/sysapp.c                   0x00000000   Number         0  sys_io.o ABSOLUTE
    ../clib/angel/sysapp.c                   0x00000000   Number         0  getenv.o ABSOLUTE
    ../clib/angel/sysapp.c                   0x00000000   Number         0  sys_wrch.o ABSOLUTE
    ../clib/arm_runtime.c                    0x00000000   Number         0  init_aeabi.o ABSOLUTE
    ../clib/arm_runtime.c                    0x00000000   Number         0  init_aeabi.o ABSOLUTE
    ../clib/armsys.c                         0x00000000   Number         0  _get_argv.o ABSOLUTE
    ../clib/armsys.c                         0x00000000   Number         0  no_argv.o ABSOLUTE
    ../clib/armsys.c                         0x00000000   Number         0  argv_veneer.o ABSOLUTE
    ../clib/armsys.c                         0x00000000   Number         0  argv_veneer.o ABSOLUTE
    ../clib/armsys.c                         0x00000000   Number         0  _get_argv_nomalloc.o ABSOLUTE
    ../clib/assert.c                         0x00000000   Number         0  assert_stdio.o ABSOLUTE
    ../clib/bigflt.c                         0x00000000   Number         0  bigflt0.o ABSOLUTE
    ../clib/btod.s                           0x00000000   Number         0  btod.o ABSOLUTE
    ../clib/division.s                       0x00000000   Number         0  rtudiv10.o ABSOLUTE
    ../clib/division.s                       0x00000000   Number         0  aeabi_sdivfast_rs.o ABSOLUTE
    ../clib/division.s                       0x00000000   Number         0  aeabi_sdivfast_rs_div0.o ABSOLUTE
    ../clib/divrt.s                          0x00000000   Number         0  divrt_9e_div0.o ABSOLUTE
    ../clib/divrt.s                          0x00000000   Number         0  divrt_9e.o ABSOLUTE
    ../clib/heap1.c                          0x00000000   Number         0  h1_free.o ABSOLUTE
    ../clib/heap1.c                          0x00000000   Number         0  h1_free_mt.o ABSOLUTE
    ../clib/heap1.c                          0x00000000   Number         0  h1_alloc.o ABSOLUTE
    ../clib/heap1.c                          0x00000000   Number         0  h1_alloc_mt.o ABSOLUTE
    ../clib/heap1.c                          0x00000000   Number         0  h1_final.o ABSOLUTE
    ../clib/heap1.c                          0x00000000   Number         0  h1_init_mt.o ABSOLUTE
    ../clib/heap1.c                          0x00000000   Number         0  h1_extend.o ABSOLUTE
    ../clib/heap1.c                          0x00000000   Number         0  h1_init.o ABSOLUTE
    ../clib/heap1.c                          0x00000000   Number         0  h1_final_mt.o ABSOLUTE
    ../clib/heap1.c                          0x00000000   Number         0  h1_extend_mt.o ABSOLUTE
    ../clib/heap2.c                          0x00000000   Number         0  heap2mt.o ABSOLUTE
    ../clib/heap2.c                          0x00000000   Number         0  heap2.o ABSOLUTE
    ../clib/heap2.c                          0x00000000   Number         0  fdtree.o ABSOLUTE
    ../clib/heapalloc.c                      0x00000000   Number         0  term_alloc.o ABSOLUTE
    ../clib/heapalloc.c                      0x00000000   Number         0  maybetermalloc1.o ABSOLUTE
    ../clib/heapalloc.c                      0x00000000   Number         0  free.o ABSOLUTE
    ../clib/heapalloc.c                      0x00000000   Number         0  maybetermalloc2.o ABSOLUTE
    ../clib/heapalloc.c                      0x00000000   Number         0  maybetermalloc2.o ABSOLUTE
    ../clib/heapalloc.c                      0x00000000   Number         0  heapstubs.o ABSOLUTE
    ../clib/heapalloc.c                      0x00000000   Number         0  malloc.o ABSOLUTE
    ../clib/heapalloc.c                      0x00000000   Number         0  init_alloc.o ABSOLUTE
    ../clib/heapalloc.c                      0x00000000   Number         0  hrguard.o ABSOLUTE
    ../clib/heapalloc.c                      0x00000000   Number         0  hguard.o ABSOLUTE
    ../clib/heapalloc.c                      0x00000000   Number         0  maybetermalloc1.o ABSOLUTE
    ../clib/heapaux.c                        0x00000000   Number         0  heapauxi.o ABSOLUTE
    ../clib/heapaux.c                        0x00000000   Number         0  heapauxa.o ABSOLUTE
    ../clib/libinit.s                        0x00000000   Number         0  libinit2.o ABSOLUTE
    ../clib/libinit.s                        0x00000000   Number         0  libshutdown2.o ABSOLUTE
    ../clib/locale.c                         0x00000000   Number         0  _wcrtomb.o ABSOLUTE
    ../clib/locale.s                         0x00000000   Number         0  lc_ctype_c.o ABSOLUTE
    ../clib/locale.s                         0x00000000   Number         0  lc_numeric_c.o ABSOLUTE
    ../clib/longlong.s                       0x00000000   Number         0  lludiv5.o ABSOLUTE
    ../clib/longlong.s                       0x00000000   Number         0  llushr.o ABSOLUTE
    ../clib/longlong.s                       0x00000000   Number         0  lludiv10.o ABSOLUTE
    ../clib/memcpset.s                       0x00000000   Number         0  rt_memmove_w.o ABSOLUTE
    ../clib/memcpset.s                       0x00000000   Number         0  strcmp.o ABSOLUTE
    ../clib/memcpset.s                       0x00000000   Number         0  strncpy.o ABSOLUTE
    ../clib/memcpset.s                       0x00000000   Number         0  rt_memcpy_w_qsp.o ABSOLUTE
    ../clib/memcpset.s                       0x00000000   Number         0  rt_memclr_w.o ABSOLUTE
    ../clib/memcpset.s                       0x00000000   Number         0  rt_memclr.o ABSOLUTE
    ../clib/memcpset.s                       0x00000000   Number         0  aeabi_memset.o ABSOLUTE
    ../clib/memcpset.s                       0x00000000   Number         0  rt_memmove.o ABSOLUTE
    ../clib/memcpset.s                       0x00000000   Number         0  rt_memcpy.o ABSOLUTE
    ../clib/memcpset.s                       0x00000000   Number         0  memcpy.o ABSOLUTE
    ../clib/misc.s                           0x00000000   Number         0  printf_stubs.o ABSOLUTE
    ../clib/printf.c                         0x00000000   Number         0  _printf_dec.o ABSOLUTE
    ../clib/printf.c                         0x00000000   Number         0  _printf_str.o ABSOLUTE
    ../clib/printf.c                         0x00000000   Number         0  _printf_pad.o ABSOLUTE
    ../clib/printf.c                         0x00000000   Number         0  __printf.o ABSOLUTE
    ../clib/printf.c                         0x00000000   Number         0  noretval__2snprintf.o ABSOLUTE
    ../clib/printf.c                         0x00000000   Number         0  noretval__2sprintf.o ABSOLUTE
    ../clib/printf.c                         0x00000000   Number         0  noretval__2printf.o ABSOLUTE
    ../clib/printf.c                         0x00000000   Number         0  _printf_truncate.o ABSOLUTE
    ../clib/printf.c                         0x00000000   Number         0  _printf_intcommon.o ABSOLUTE
    ../clib/printf.c                         0x00000000   Number         0  _printf_charcount.o ABSOLUTE
    ../clib/printf.c                         0x00000000   Number         0  __2snprintf.o ABSOLUTE
    ../clib/printf.c                         0x00000000   Number         0  __2sprintf.o ABSOLUTE
    ../clib/printf.c                         0x00000000   Number         0  __2printf.o ABSOLUTE
    ../clib/printf.c                         0x00000000   Number         0  c89vsnprintf.o ABSOLUTE
    ../clib/printf.c                         0x00000000   Number         0  _printf_char_common.o ABSOLUTE
    ../clib/printf.c                         0x00000000   Number         0  _sputc.o ABSOLUTE
    ../clib/printf.c                         0x00000000   Number         0  _snputc.o ABSOLUTE
    ../clib/printf.c                         0x00000000   Number         0  _printf_oct_int_ll.o ABSOLUTE
    ../clib/printf.c                         0x00000000   Number         0  _printf_oct_int.o ABSOLUTE
    ../clib/printf.c                         0x00000000   Number         0  _printf_oct_ll.o ABSOLUTE
    ../clib/printf.c                         0x00000000   Number         0  _printf_longlong_dec.o ABSOLUTE
    ../clib/printf.c                         0x00000000   Number         0  _printf_char.o ABSOLUTE
    ../clib/printf.c                         0x00000000   Number         0  _printf_wctomb.o ABSOLUTE
    ../clib/printf.c                         0x00000000   Number         0  _printf_char_file.o ABSOLUTE
    ../clib/printf.c                         0x00000000   Number         0  _printf_char_file_locked.o ABSOLUTE
    ../clib/printf.c                         0x00000000   Number         0  __printf_flags_ss_wp.o ABSOLUTE
    ../clib/printf.c                         0x00000000   Number         0  _printf_fp_infnan.o ABSOLUTE
    ../clib/printf.c                         0x00000000   Number         0  __printf_ss_wp.o ABSOLUTE
    ../clib/printf.c                         0x00000000   Number         0  __printf_flags_wp.o ABSOLUTE
    ../clib/printf.c                         0x00000000   Number         0  __printf_wp.o ABSOLUTE
    ../clib/printf.c                         0x00000000   Number         0  __printf_flags_ss.o ABSOLUTE
    ../clib/printf.c                         0x00000000   Number         0  __printf_ss.o ABSOLUTE
    ../clib/printf.c                         0x00000000   Number         0  __printf_flags.o ABSOLUTE
    ../clib/printf.c                         0x00000000   Number         0  _printf_hex_int_ll_ptr.o ABSOLUTE
    ../clib/printf.c                         0x00000000   Number         0  _printf_hex_ll_ptr.o ABSOLUTE
    ../clib/printf.c                         0x00000000   Number         0  _printf_hex_int_ptr.o ABSOLUTE
    ../clib/printf.c                         0x00000000   Number         0  _printf_hex_ptr.o ABSOLUTE
    ../clib/printf.c                         0x00000000   Number         0  _printf_hex_int_ll.o ABSOLUTE
    ../clib/printf.c                         0x00000000   Number         0  _printf_hex_int.o ABSOLUTE
    ../clib/printf.c                         0x00000000   Number         0  _printf_wchar.o ABSOLUTE
    ../clib/printf.c                         0x00000000   Number         0  _printf_fp_dec.o ABSOLUTE
    ../clib/printf.c                         0x00000000   Number         0  _printf_hex_ll.o ABSOLUTE
    ../clib/printf.c                         0x00000000   Number         0  __printf_nopercent.o ABSOLUTE
    ../clib/printf_percent.s                 0x00000000   Number         0  _printf_f.o ABSOLUTE
    ../clib/printf_percent.s                 0x00000000   Number         0  _printf_i.o ABSOLUTE
    ../clib/printf_percent.s                 0x00000000   Number         0  _printf_o.o ABSOLUTE
    ../clib/printf_percent.s                 0x00000000   Number         0  _printf_p.o ABSOLUTE
    ../clib/printf_percent.s                 0x00000000   Number         0  _printf_n.o ABSOLUTE
    ../clib/printf_percent.s                 0x00000000   Number         0  _printf_c.o ABSOLUTE
    ../clib/printf_percent.s                 0x00000000   Number         0  _printf_s.o ABSOLUTE
    ../clib/printf_percent.s                 0x00000000   Number         0  _printf_x.o ABSOLUTE
    ../clib/printf_percent.s                 0x00000000   Number         0  _printf_d.o ABSOLUTE
    ../clib/printf_percent.s                 0x00000000   Number         0  _printf_u.o ABSOLUTE
    ../clib/printf_percent.s                 0x00000000   Number         0  _printf_percent.o ABSOLUTE
    ../clib/printf_percent.s                 0x00000000   Number         0  _printf_e.o ABSOLUTE
    ../clib/printf_percent.s                 0x00000000   Number         0  _printf_g.o ABSOLUTE
    ../clib/printf_percent.s                 0x00000000   Number         0  _printf_a.o ABSOLUTE
    ../clib/printf_percent.s                 0x00000000   Number         0  _printf_percent_end.o ABSOLUTE
    ../clib/printf_percent.s                 0x00000000   Number         0  _printf_lli.o ABSOLUTE
    ../clib/printf_percent.s                 0x00000000   Number         0  _printf_lld.o ABSOLUTE
    ../clib/printf_percent.s                 0x00000000   Number         0  _printf_llu.o ABSOLUTE
    ../clib/printf_percent.s                 0x00000000   Number         0  _printf_ll.o ABSOLUTE
    ../clib/printf_percent.s                 0x00000000   Number         0  _printf_l.o ABSOLUTE
    ../clib/printf_percent.s                 0x00000000   Number         0  _printf_lc.o ABSOLUTE
    ../clib/printf_percent.s                 0x00000000   Number         0  _printf_ls.o ABSOLUTE
    ../clib/printf_percent.s                 0x00000000   Number         0  _printf_llo.o ABSOLUTE
    ../clib/printf_percent.s                 0x00000000   Number         0  _printf_llx.o ABSOLUTE
    ../clib/signal.c                         0x00000000   Number         0  defsig_rtmem_inner.o ABSOLUTE
    ../clib/signal.c                         0x00000000   Number         0  defsig_general.o ABSOLUTE
    ../clib/signal.c                         0x00000000   Number         0  __raise.o ABSOLUTE
    ../clib/signal.c                         0x00000000   Number         0  defsig_fpe_outer.o ABSOLUTE
    ../clib/signal.c                         0x00000000   Number         0  defsig_fpe_formal.o ABSOLUTE
    ../clib/signal.c                         0x00000000   Number         0  defsig_abrt_inner.o ABSOLUTE
    ../clib/signal.c                         0x00000000   Number         0  defsig_rtred_outer.o ABSOLUTE
    ../clib/signal.c                         0x00000000   Number         0  defsig_stak_inner.o ABSOLUTE
    ../clib/signal.c                         0x00000000   Number         0  defsig_rtred_formal.o ABSOLUTE
    ../clib/signal.c                         0x00000000   Number         0  defsig_pvfn_inner.o ABSOLUTE
    ../clib/signal.c                         0x00000000   Number         0  defsig_cppl_inner.o ABSOLUTE
    ../clib/signal.c                         0x00000000   Number         0  defsig_segv_inner.o ABSOLUTE
    ../clib/signal.c                         0x00000000   Number         0  defsig_other.o ABSOLUTE
    ../clib/signal.c                         0x00000000   Number         0  defsig_exit.o ABSOLUTE
    ../clib/signal.c                         0x00000000   Number         0  defsig_fpe_inner.o ABSOLUTE
    ../clib/signal.c                         0x00000000   Number         0  defsig_rtred_inner.o ABSOLUTE
    ../clib/signal.c                         0x00000000   Number         0  defsig_rtmem_outer.o ABSOLUTE
    ../clib/signal.c                         0x00000000   Number         0  defsig_rtmem_formal.o ABSOLUTE
    ../clib/signal.s                         0x00000000   Number         0  defsig.o ABSOLUTE
    ../clib/stdio.c                          0x00000000   Number         0  fputs.o ABSOLUTE
    ../clib/stdio.c                          0x00000000   Number         0  flsbuf.o ABSOLUTE
    ../clib/stdio.c                          0x00000000   Number         0  setvbuf.o ABSOLUTE
    ../clib/stdio.c                          0x00000000   Number         0  fflush.o ABSOLUTE
    ../clib/stdio.c                          0x00000000   Number         0  streamlock.o ABSOLUTE
    ../clib/stdio.c                          0x00000000   Number         0  fopen.o ABSOLUTE
    ../clib/stdio.c                          0x00000000   Number         0  fclose.o ABSOLUTE
    ../clib/stdio.c                          0x00000000   Number         0  fflush_locked.o ABSOLUTE
    ../clib/stdio.c                          0x00000000   Number         0  setvbuf_locked.o ABSOLUTE
    ../clib/stdio.c                          0x00000000   Number         0  fopen_locked.o ABSOLUTE
    ../clib/stdio.c                          0x00000000   Number         0  fwritefast_locked.o ABSOLUTE
    ../clib/stdio.c                          0x00000000   Number         0  fwritefast.o ABSOLUTE
    ../clib/stdio.c                          0x00000000   Number         0  stdio.o ABSOLUTE
    ../clib/stdio.c                          0x00000000   Number         0  fseek.o ABSOLUTE
    ../clib/stdio.c                          0x00000000   Number         0  ftell.o ABSOLUTE
    ../clib/stdio.c                          0x00000000   Number         0  fputs_locked.o ABSOLUTE
    ../clib/stdio.c                          0x00000000   Number         0  stdio_streams.o ABSOLUTE
    ../clib/stdio.c                          0x00000000   Number         0  ferror.o ABSOLUTE
    ../clib/stdio.c                          0x00000000   Number         0  initio_locked.o ABSOLUTE
    ../clib/stdio.c                          0x00000000   Number         0  ferror_locked.o ABSOLUTE
    ../clib/stdio.c                          0x00000000   Number         0  fputc_locked.o ABSOLUTE
    ../clib/stdio.c                          0x00000000   Number         0  initio.o ABSOLUTE
    ../clib/stdio.c                          0x00000000   Number         0  fputc.o ABSOLUTE
    ../clib/stdlib.c                         0x00000000   Number         0  qsortnoex.o ABSOLUTE
    ../clib/string.c                         0x00000000   Number         0  strchr.o ABSOLUTE
    ../clib/string.c                         0x00000000   Number         0  strstr.o ABSOLUTE
    ../clib/string.c                         0x00000000   Number         0  memcmp.o ABSOLUTE
    ../clib/string.c                         0x00000000   Number         0  strcpy.o ABSOLUTE
    ../clib/string.c                         0x00000000   Number         0  strlen.o ABSOLUTE
    ../clib/string.c                         0x00000000   Number         0  memchr.o ABSOLUTE
    ../clib/string.c                         0x00000000   Number         0  strncmp.o ABSOLUTE
    ../clib/unhosted.s                       0x00000000   Number         0  uwrite4.o ABSOLUTE
    ../clib/unhosted.s                       0x00000000   Number         0  uread4.o ABSOLUTE
    ../clib/wchar.c                          0x00000000   Number         0  flsbuf_fwide.o ABSOLUTE
    ../fplib/daddsub.s                       0x00000000   Number         0  daddsub_clz.o ABSOLUTE
    ../fplib/dcmpi.s                         0x00000000   Number         0  dcmpi.o ABSOLUTE
    ../fplib/dfix.s                          0x00000000   Number         0  dfix.o ABSOLUTE
    ../fplib/dflt.s                          0x00000000   Number         0  dflt_clz.o ABSOLUTE
    ../fplib/dleqf.s                         0x00000000   Number         0  dleqf.o ABSOLUTE
    ../fplib/dmul.s                          0x00000000   Number         0  dmul.o ABSOLUTE
    ../fplib/dnaninf.s                       0x00000000   Number         0  dnaninf.o ABSOLUTE
    ../fplib/dretinf.s                       0x00000000   Number         0  dretinf.o ABSOLUTE
    ../fplib/drleqf.s                        0x00000000   Number         0  drleqf.o ABSOLUTE
    ../fplib/fpinit.s                        0x00000000   Number         0  fpinit.o ABSOLUTE
    ../fplib/istatus.s                       0x00000000   Number         0  istatus.o ABSOLUTE
    ../fplib/printf1.s                       0x00000000   Number         0  printf1.o ABSOLUTE
    ../fplib/usenofp.s                       0x00000000   Number         0  usenofp.o ABSOLUTE
    ../mathlib/fpclassify.c                  0x00000000   Number         0  fpclassify.o ABSOLUTE
    /home/mmandra/work/JBP8974PRO/nhlos/trustzone_images/core/securemsm/trustzone/qsapps/crypto_core/src/cryptolib_init.c 0x00000000   Number         0  cryptolib_init.o ABSOLUTE
    /home/mmandra/work/JBP8974PRO/nhlos/trustzone_images/core/securemsm/trustzone/qsapps/crypto_core/src/drbg/ctr_drbg.c 0x00000000   Number         0  ctr_drbg.o ABSOLUTE
    /home/mmandra/work/JBP8974PRO/nhlos/trustzone_images/core/securemsm/trustzone/qsapps/crypto_core/src/drbg/ctr_drbg_ossl.c 0x00000000   Number         0  ctr_drbg_ossl.o ABSOLUTE
    /home/mmandra/work/JBP8974PRO/nhlos/trustzone_images/core/securemsm/trustzone/qsapps/crypto_core/src/libc_functions/libc_functions.c 0x00000000   Number         0  libc_functions.o ABSOLUTE
    /home/mmandra/work/JBP8974PRO/nhlos/trustzone_images/core/securemsm/trustzone/qsapps/crypto_core/src/openssl/asn1/a_bitstr.c 0x00000000   Number         0  a_bitstr.o ABSOLUTE
    /home/mmandra/work/JBP8974PRO/nhlos/trustzone_images/core/securemsm/trustzone/qsapps/crypto_core/src/openssl/asn1/a_dup.c 0x00000000   Number         0  a_dup.o ABSOLUTE
    /home/mmandra/work/JBP8974PRO/nhlos/trustzone_images/core/securemsm/trustzone/qsapps/crypto_core/src/openssl/asn1/a_int.c 0x00000000   Number         0  a_int.o ABSOLUTE
    /home/mmandra/work/JBP8974PRO/nhlos/trustzone_images/core/securemsm/trustzone/qsapps/crypto_core/src/openssl/asn1/a_object.c 0x00000000   Number         0  a_object.o ABSOLUTE
    /home/mmandra/work/JBP8974PRO/nhlos/trustzone_images/core/securemsm/trustzone/qsapps/crypto_core/src/openssl/asn1/a_type.c 0x00000000   Number         0  a_type.o ABSOLUTE
    /home/mmandra/work/JBP8974PRO/nhlos/trustzone_images/core/securemsm/trustzone/qsapps/crypto_core/src/openssl/asn1/asn1_lib.c 0x00000000   Number         0  asn1_lib.o ABSOLUTE
    /home/mmandra/work/JBP8974PRO/nhlos/trustzone_images/core/securemsm/trustzone/qsapps/crypto_core/src/openssl/asn1/tasn_dec.c 0x00000000   Number         0  tasn_dec.o ABSOLUTE
    /home/mmandra/work/JBP8974PRO/nhlos/trustzone_images/core/securemsm/trustzone/qsapps/crypto_core/src/openssl/asn1/tasn_enc.c 0x00000000   Number         0  tasn_enc.o ABSOLUTE
    /home/mmandra/work/JBP8974PRO/nhlos/trustzone_images/core/securemsm/trustzone/qsapps/crypto_core/src/openssl/asn1/tasn_fre.c 0x00000000   Number         0  tasn_fre.o ABSOLUTE
    /home/mmandra/work/JBP8974PRO/nhlos/trustzone_images/core/securemsm/trustzone/qsapps/crypto_core/src/openssl/asn1/tasn_new.c 0x00000000   Number         0  tasn_new.o ABSOLUTE
    /home/mmandra/work/JBP8974PRO/nhlos/trustzone_images/core/securemsm/trustzone/qsapps/crypto_core/src/openssl/asn1/tasn_typ.c 0x00000000   Number         0  tasn_typ.o ABSOLUTE
    /home/mmandra/work/JBP8974PRO/nhlos/trustzone_images/core/securemsm/trustzone/qsapps/crypto_core/src/openssl/asn1/tasn_utl.c 0x00000000   Number         0  tasn_utl.o ABSOLUTE
    /home/mmandra/work/JBP8974PRO/nhlos/trustzone_images/core/securemsm/trustzone/qsapps/crypto_core/src/openssl/asn1/x_algor.c 0x00000000   Number         0  x_algor.o ABSOLUTE
    /home/mmandra/work/JBP8974PRO/nhlos/trustzone_images/core/securemsm/trustzone/qsapps/crypto_core/src/openssl/asn1/x_bignum.c 0x00000000   Number         0  x_bignum.o ABSOLUTE
    /home/mmandra/work/JBP8974PRO/nhlos/trustzone_images/core/securemsm/trustzone/qsapps/crypto_core/src/openssl/asn1/x_sig.c 0x00000000   Number         0  x_sig.o ABSOLUTE
    /home/mmandra/work/JBP8974PRO/nhlos/trustzone_images/core/securemsm/trustzone/qsapps/crypto_core/src/openssl/bio/b_print.c 0x00000000   Number         0  b_print.o ABSOLUTE
    /home/mmandra/work/JBP8974PRO/nhlos/trustzone_images/core/securemsm/trustzone/qsapps/crypto_core/src/openssl/bn/bn_kron.c 0x00000000   Number         0  bn_kron.o ABSOLUTE
    /home/mmandra/work/JBP8974PRO/nhlos/trustzone_images/core/securemsm/trustzone/qsapps/crypto_core/src/openssl/bn/bn_sqrt.c 0x00000000   Number         0  bn_sqrt.o ABSOLUTE
    /home/mmandra/work/JBP8974PRO/nhlos/trustzone_images/core/securemsm/trustzone/qsapps/crypto_core/src/openssl/buffer/buffer.c 0x00000000   Number         0  buffer.o ABSOLUTE
    /home/mmandra/work/JBP8974PRO/nhlos/trustzone_images/core/securemsm/trustzone/qsapps/crypto_core/src/openssl/ec/ecp_oct.c 0x00000000   Number         0  ecp_oct.o ABSOLUTE
    /home/mmandra/work/JBP8974PRO/nhlos/trustzone_images/core/securemsm/trustzone/qsapps/crypto_core/src/openssl/ecdh/ech_lib.c 0x00000000   Number         0  ech_lib.o ABSOLUTE
    /home/mmandra/work/JBP8974PRO/nhlos/trustzone_images/core/securemsm/trustzone/qsapps/crypto_core/src/openssl/ecdsa/ecs_asn1.c 0x00000000   Number         0  ecs_asn1.o ABSOLUTE
    /home/mmandra/work/JBP8974PRO/nhlos/trustzone_images/core/securemsm/trustzone/qsapps/crypto_core/src/openssl/err/err.c 0x00000000   Number         0  err.o ABSOLUTE
    /home/mmandra/work/JBP8974PRO/nhlos/trustzone_images/core/securemsm/trustzone/qsapps/crypto_core/src/openssl/evp/c_all.c 0x00000000   Number         0  c_all.o ABSOLUTE
    /home/mmandra/work/JBP8974PRO/nhlos/trustzone_images/core/securemsm/trustzone/qsapps/crypto_core/src/openssl/evp/c_allc.c 0x00000000   Number         0  c_allc.o ABSOLUTE
    /home/mmandra/work/JBP8974PRO/nhlos/trustzone_images/core/securemsm/trustzone/qsapps/crypto_core/src/openssl/evp/c_alld.c 0x00000000   Number         0  c_alld.o ABSOLUTE
    /home/mmandra/work/JBP8974PRO/nhlos/trustzone_images/core/securemsm/trustzone/qsapps/crypto_core/src/openssl/evp/evp_lib.c 0x00000000   Number         0  evp_lib.o ABSOLUTE
    /home/mmandra/work/JBP8974PRO/nhlos/trustzone_images/core/securemsm/trustzone/qsapps/crypto_core/src/openssl/evp/names.c 0x00000000   Number         0  names.o ABSOLUTE
    /home/mmandra/work/JBP8974PRO/nhlos/trustzone_images/core/securemsm/trustzone/qsapps/crypto_core/src/openssl/ex_data.c 0x00000000   Number         0  ex_data.o ABSOLUTE
    /home/mmandra/work/JBP8974PRO/nhlos/trustzone_images/core/securemsm/trustzone/qsapps/crypto_core/src/openssl/lhash/lhash.c 0x00000000   Number         0  lhash.o ABSOLUTE
    /home/mmandra/work/JBP8974PRO/nhlos/trustzone_images/core/securemsm/trustzone/qsapps/crypto_core/src/openssl/mem.c 0x00000000   Number         0  mem.o ABSOLUTE
    /home/mmandra/work/JBP8974PRO/nhlos/trustzone_images/core/securemsm/trustzone/qsapps/crypto_core/src/openssl/mem_clr.c 0x00000000   Number         0  mem_clr.o ABSOLUTE
    /home/mmandra/work/JBP8974PRO/nhlos/trustzone_images/core/securemsm/trustzone/qsapps/crypto_core/src/openssl/o_fips.c 0x00000000   Number         0  o_fips.o ABSOLUTE
    /home/mmandra/work/JBP8974PRO/nhlos/trustzone_images/core/securemsm/trustzone/qsapps/crypto_core/src/openssl/o_init.c 0x00000000   Number         0  o_init.o ABSOLUTE
    /home/mmandra/work/JBP8974PRO/nhlos/trustzone_images/core/securemsm/trustzone/qsapps/crypto_core/src/openssl/objects/o_names.c 0x00000000   Number         0  o_names.o ABSOLUTE
    /home/mmandra/work/JBP8974PRO/nhlos/trustzone_images/core/securemsm/trustzone/qsapps/crypto_core/src/openssl/objects/obj_dat.c 0x00000000   Number         0  obj_dat.o ABSOLUTE
    /home/mmandra/work/JBP8974PRO/nhlos/trustzone_images/core/securemsm/trustzone/qsapps/crypto_core/src/openssl/objects/obj_lib.c 0x00000000   Number         0  obj_lib.o ABSOLUTE
    /home/mmandra/work/JBP8974PRO/nhlos/trustzone_images/core/securemsm/trustzone/qsapps/crypto_core/src/openssl/openssl-fips-2.0.5/crypto/aes/aes_cbc.c 0x00000000   Number         0  aes_cbc.o ABSOLUTE
    /home/mmandra/work/JBP8974PRO/nhlos/trustzone_images/core/securemsm/trustzone/qsapps/crypto_core/src/openssl/openssl-fips-2.0.5/crypto/aes/asm/aes-armv4-cc.S 0x00000000   Number         0  aes-armv4-cc.o ABSOLUTE
    /home/mmandra/work/JBP8974PRO/nhlos/trustzone_images/core/securemsm/trustzone/qsapps/crypto_core/src/openssl/openssl-fips-2.0.5/crypto/bn/asm/armv4-mont-cc.S 0x00000000   Number         0  armv4-mont-cc.o ABSOLUTE
    /home/mmandra/work/JBP8974PRO/nhlos/trustzone_images/core/securemsm/trustzone/qsapps/crypto_core/src/openssl/openssl-fips-2.0.5/crypto/bn/bn_add.c 0x00000000   Number         0  bn_add.o ABSOLUTE
    /home/mmandra/work/JBP8974PRO/nhlos/trustzone_images/core/securemsm/trustzone/qsapps/crypto_core/src/openssl/openssl-fips-2.0.5/crypto/bn/bn_asm.c 0x00000000   Number         0  bn_asm.o ABSOLUTE
    /home/mmandra/work/JBP8974PRO/nhlos/trustzone_images/core/securemsm/trustzone/qsapps/crypto_core/src/openssl/openssl-fips-2.0.5/crypto/bn/bn_blind.c 0x00000000   Number         0  bn_blind.o ABSOLUTE
    /home/mmandra/work/JBP8974PRO/nhlos/trustzone_images/core/securemsm/trustzone/qsapps/crypto_core/src/openssl/openssl-fips-2.0.5/crypto/bn/bn_ctx.c 0x00000000   Number         0  bn_ctx.o ABSOLUTE
    /home/mmandra/work/JBP8974PRO/nhlos/trustzone_images/core/securemsm/trustzone/qsapps/crypto_core/src/openssl/openssl-fips-2.0.5/crypto/bn/bn_div.c 0x00000000   Number         0  bn_div.o ABSOLUTE
    /home/mmandra/work/JBP8974PRO/nhlos/trustzone_images/core/securemsm/trustzone/qsapps/crypto_core/src/openssl/openssl-fips-2.0.5/crypto/bn/bn_exp.c 0x00000000   Number         0  bn_exp.o ABSOLUTE
    /home/mmandra/work/JBP8974PRO/nhlos/trustzone_images/core/securemsm/trustzone/qsapps/crypto_core/src/openssl/openssl-fips-2.0.5/crypto/bn/bn_gcd.c 0x00000000   Number         0  bn_gcd.o ABSOLUTE
    /home/mmandra/work/JBP8974PRO/nhlos/trustzone_images/core/securemsm/trustzone/qsapps/crypto_core/src/openssl/openssl-fips-2.0.5/crypto/bn/bn_lib.c 0x00000000   Number         0  bn_lib.o ABSOLUTE
    /home/mmandra/work/JBP8974PRO/nhlos/trustzone_images/core/securemsm/trustzone/qsapps/crypto_core/src/openssl/openssl-fips-2.0.5/crypto/bn/bn_mod.c 0x00000000   Number         0  bn_mod.o ABSOLUTE
    /home/mmandra/work/JBP8974PRO/nhlos/trustzone_images/core/securemsm/trustzone/qsapps/crypto_core/src/openssl/openssl-fips-2.0.5/crypto/bn/bn_mont.c 0x00000000   Number         0  bn_mont.o ABSOLUTE
    /home/mmandra/work/JBP8974PRO/nhlos/trustzone_images/core/securemsm/trustzone/qsapps/crypto_core/src/openssl/openssl-fips-2.0.5/crypto/bn/bn_mul.c 0x00000000   Number         0  bn_mul.o ABSOLUTE
    /home/mmandra/work/JBP8974PRO/nhlos/trustzone_images/core/securemsm/trustzone/qsapps/crypto_core/src/openssl/openssl-fips-2.0.5/crypto/bn/bn_prime.c 0x00000000   Number         0  bn_prime.o ABSOLUTE
    /home/mmandra/work/JBP8974PRO/nhlos/trustzone_images/core/securemsm/trustzone/qsapps/crypto_core/src/openssl/openssl-fips-2.0.5/crypto/bn/bn_rand.c 0x00000000   Number         0  bn_rand.o ABSOLUTE
    /home/mmandra/work/JBP8974PRO/nhlos/trustzone_images/core/securemsm/trustzone/qsapps/crypto_core/src/openssl/openssl-fips-2.0.5/crypto/bn/bn_recp.c 0x00000000   Number         0  bn_recp.o ABSOLUTE
    /home/mmandra/work/JBP8974PRO/nhlos/trustzone_images/core/securemsm/trustzone/qsapps/crypto_core/src/openssl/openssl-fips-2.0.5/crypto/bn/bn_shift.c 0x00000000   Number         0  bn_shift.o ABSOLUTE
    /home/mmandra/work/JBP8974PRO/nhlos/trustzone_images/core/securemsm/trustzone/qsapps/crypto_core/src/openssl/openssl-fips-2.0.5/crypto/bn/bn_sqr.c 0x00000000   Number         0  bn_sqr.o ABSOLUTE
    /home/mmandra/work/JBP8974PRO/nhlos/trustzone_images/core/securemsm/trustzone/qsapps/crypto_core/src/openssl/openssl-fips-2.0.5/crypto/bn/bn_word.c 0x00000000   Number         0  bn_word.o ABSOLUTE
    /home/mmandra/work/JBP8974PRO/nhlos/trustzone_images/core/securemsm/trustzone/qsapps/crypto_core/src/openssl/openssl-fips-2.0.5/crypto/cmac/cmac.c 0x00000000   Number         0  cmac.o ABSOLUTE
    /home/mmandra/work/JBP8974PRO/nhlos/trustzone_images/core/securemsm/trustzone/qsapps/crypto_core/src/openssl/openssl-fips-2.0.5/crypto/cryptlib.c 0x00000000   Number         0  cryptlib.o ABSOLUTE
    /home/mmandra/work/JBP8974PRO/nhlos/trustzone_images/core/securemsm/trustzone/qsapps/crypto_core/src/openssl/openssl-fips-2.0.5/crypto/des/cfb64ede.c 0x00000000   Number         0  cfb64ede.o ABSOLUTE
    /home/mmandra/work/JBP8974PRO/nhlos/trustzone_images/core/securemsm/trustzone/qsapps/crypto_core/src/openssl/openssl-fips-2.0.5/crypto/des/des_enc.c 0x00000000   Number         0  des_enc.o ABSOLUTE
    /home/mmandra/work/JBP8974PRO/nhlos/trustzone_images/core/securemsm/trustzone/qsapps/crypto_core/src/openssl/openssl-fips-2.0.5/crypto/des/ecb3_enc.c 0x00000000   Number         0  ecb3_enc.o ABSOLUTE
    /home/mmandra/work/JBP8974PRO/nhlos/trustzone_images/core/securemsm/trustzone/qsapps/crypto_core/src/openssl/openssl-fips-2.0.5/crypto/des/ofb64ede.c 0x00000000   Number         0  ofb64ede.o ABSOLUTE
    /home/mmandra/work/JBP8974PRO/nhlos/trustzone_images/core/securemsm/trustzone/qsapps/crypto_core/src/openssl/openssl-fips-2.0.5/crypto/des/set_key.c 0x00000000   Number         0  set_key.o ABSOLUTE
    /home/mmandra/work/JBP8974PRO/nhlos/trustzone_images/core/securemsm/trustzone/qsapps/crypto_core/src/openssl/openssl-fips-2.0.5/crypto/ec/ec_curve.c 0x00000000   Number         0  ec_curve.o ABSOLUTE
    /home/mmandra/work/JBP8974PRO/nhlos/trustzone_images/core/securemsm/trustzone/qsapps/crypto_core/src/openssl/openssl-fips-2.0.5/crypto/ec/ec_cvt.c 0x00000000   Number         0  ec_cvt.o ABSOLUTE
    /home/mmandra/work/JBP8974PRO/nhlos/trustzone_images/core/securemsm/trustzone/qsapps/crypto_core/src/openssl/openssl-fips-2.0.5/crypto/ec/ec_key.c 0x00000000   Number         0  ec_key.o ABSOLUTE
    /home/mmandra/work/JBP8974PRO/nhlos/trustzone_images/core/securemsm/trustzone/qsapps/crypto_core/src/openssl/openssl-fips-2.0.5/crypto/ec/ec_lib.c 0x00000000   Number         0  ec_lib.o ABSOLUTE
    /home/mmandra/work/JBP8974PRO/nhlos/trustzone_images/core/securemsm/trustzone/qsapps/crypto_core/src/openssl/openssl-fips-2.0.5/crypto/ec/ec_mult.c 0x00000000   Number         0  ec_mult.o ABSOLUTE
    /home/mmandra/work/JBP8974PRO/nhlos/trustzone_images/core/securemsm/trustzone/qsapps/crypto_core/src/openssl/openssl-fips-2.0.5/crypto/ec/ec_oct.c 0x00000000   Number         0  ec_oct.o ABSOLUTE
    /home/mmandra/work/JBP8974PRO/nhlos/trustzone_images/core/securemsm/trustzone/qsapps/crypto_core/src/openssl/openssl-fips-2.0.5/crypto/ec/ecp_mont.c 0x00000000   Number         0  ecp_mont.o ABSOLUTE
    /home/mmandra/work/JBP8974PRO/nhlos/trustzone_images/core/securemsm/trustzone/qsapps/crypto_core/src/openssl/openssl-fips-2.0.5/crypto/ec/ecp_smpl.c 0x00000000   Number         0  ecp_smpl.o ABSOLUTE
    /home/mmandra/work/JBP8974PRO/nhlos/trustzone_images/core/securemsm/trustzone/qsapps/crypto_core/src/openssl/openssl-fips-2.0.5/crypto/ecdh/ech_key.c 0x00000000   Number         0  ech_key.o ABSOLUTE
    /home/mmandra/work/JBP8974PRO/nhlos/trustzone_images/core/securemsm/trustzone/qsapps/crypto_core/src/openssl/openssl-fips-2.0.5/crypto/ecdh/ech_ossl.c 0x00000000   Number         0  ech_ossl.o ABSOLUTE
    /home/mmandra/work/JBP8974PRO/nhlos/trustzone_images/core/securemsm/trustzone/qsapps/crypto_core/src/openssl/openssl-fips-2.0.5/crypto/ecdsa/ecs_ossl.c 0x00000000   Number         0  ecs_ossl.o ABSOLUTE
    /home/mmandra/work/JBP8974PRO/nhlos/trustzone_images/core/securemsm/trustzone/qsapps/crypto_core/src/openssl/openssl-fips-2.0.5/crypto/evp/e_aes.c 0x00000000   Number         0  e_aes.o ABSOLUTE
    /home/mmandra/work/JBP8974PRO/nhlos/trustzone_images/core/securemsm/trustzone/qsapps/crypto_core/src/openssl/openssl-fips-2.0.5/crypto/evp/e_des3.c 0x00000000   Number         0  e_des3.o ABSOLUTE
    /home/mmandra/work/JBP8974PRO/nhlos/trustzone_images/core/securemsm/trustzone/qsapps/crypto_core/src/openssl/openssl-fips-2.0.5/crypto/evp/m_sha1.c 0x00000000   Number         0  m_sha1.o ABSOLUTE
    /home/mmandra/work/JBP8974PRO/nhlos/trustzone_images/core/securemsm/trustzone/qsapps/crypto_core/src/openssl/openssl-fips-2.0.5/crypto/hmac/hmac.c 0x00000000   Number         0  hmac.o ABSOLUTE
    /home/mmandra/work/JBP8974PRO/nhlos/trustzone_images/core/securemsm/trustzone/qsapps/crypto_core/src/openssl/openssl-fips-2.0.5/crypto/modes/asm/ghash-armv4-cc.S 0x00000000   Number         0  ghash-armv4-cc.o ABSOLUTE
    /home/mmandra/work/JBP8974PRO/nhlos/trustzone_images/core/securemsm/trustzone/qsapps/crypto_core/src/openssl/openssl-fips-2.0.5/crypto/modes/cbc128.c 0x00000000   Number         0  cbc128.o ABSOLUTE
    /home/mmandra/work/JBP8974PRO/nhlos/trustzone_images/core/securemsm/trustzone/qsapps/crypto_core/src/openssl/openssl-fips-2.0.5/crypto/modes/ccm128.c 0x00000000   Number         0  ccm128.o ABSOLUTE
    /home/mmandra/work/JBP8974PRO/nhlos/trustzone_images/core/securemsm/trustzone/qsapps/crypto_core/src/openssl/openssl-fips-2.0.5/crypto/modes/cfb128.c 0x00000000   Number         0  cfb128.o ABSOLUTE
    /home/mmandra/work/JBP8974PRO/nhlos/trustzone_images/core/securemsm/trustzone/qsapps/crypto_core/src/openssl/openssl-fips-2.0.5/crypto/modes/ctr128.c 0x00000000   Number         0  ctr128.o ABSOLUTE
    /home/mmandra/work/JBP8974PRO/nhlos/trustzone_images/core/securemsm/trustzone/qsapps/crypto_core/src/openssl/openssl-fips-2.0.5/crypto/modes/gcm128.c 0x00000000   Number         0  gcm128.o ABSOLUTE
    /home/mmandra/work/JBP8974PRO/nhlos/trustzone_images/core/securemsm/trustzone/qsapps/crypto_core/src/openssl/openssl-fips-2.0.5/crypto/modes/ofb128.c 0x00000000   Number         0  ofb128.o ABSOLUTE
    /home/mmandra/work/JBP8974PRO/nhlos/trustzone_images/core/securemsm/trustzone/qsapps/crypto_core/src/openssl/openssl-fips-2.0.5/crypto/modes/xts128.c 0x00000000   Number         0  xts128.o ABSOLUTE
    /home/mmandra/work/JBP8974PRO/nhlos/trustzone_images/core/securemsm/trustzone/qsapps/crypto_core/src/openssl/openssl-fips-2.0.5/crypto/rsa/rsa_crpt.c 0x00000000   Number         0  rsa_crpt.o ABSOLUTE
    /home/mmandra/work/JBP8974PRO/nhlos/trustzone_images/core/securemsm/trustzone/qsapps/crypto_core/src/openssl/openssl-fips-2.0.5/crypto/rsa/rsa_eay.c 0x00000000   Number         0  rsa_eay.o ABSOLUTE
    /home/mmandra/work/JBP8974PRO/nhlos/trustzone_images/core/securemsm/trustzone/qsapps/crypto_core/src/openssl/openssl-fips-2.0.5/crypto/rsa/rsa_gen.c 0x00000000   Number         0  rsa_gen.o ABSOLUTE
    /home/mmandra/work/JBP8974PRO/nhlos/trustzone_images/core/securemsm/trustzone/qsapps/crypto_core/src/openssl/openssl-fips-2.0.5/crypto/rsa/rsa_none.c 0x00000000   Number         0  rsa_none.o ABSOLUTE
    /home/mmandra/work/JBP8974PRO/nhlos/trustzone_images/core/securemsm/trustzone/qsapps/crypto_core/src/openssl/openssl-fips-2.0.5/crypto/rsa/rsa_oaep.c 0x00000000   Number         0  rsa_oaep.o ABSOLUTE
    /home/mmandra/work/JBP8974PRO/nhlos/trustzone_images/core/securemsm/trustzone/qsapps/crypto_core/src/openssl/openssl-fips-2.0.5/crypto/rsa/rsa_pk1.c 0x00000000   Number         0  rsa_pk1.o ABSOLUTE
    /home/mmandra/work/JBP8974PRO/nhlos/trustzone_images/core/securemsm/trustzone/qsapps/crypto_core/src/openssl/openssl-fips-2.0.5/crypto/rsa/rsa_pss.c 0x00000000   Number         0  rsa_pss.o ABSOLUTE
    /home/mmandra/work/JBP8974PRO/nhlos/trustzone_images/core/securemsm/trustzone/qsapps/crypto_core/src/openssl/openssl-fips-2.0.5/crypto/rsa/rsa_ssl.c 0x00000000   Number         0  rsa_ssl.o ABSOLUTE
    /home/mmandra/work/JBP8974PRO/nhlos/trustzone_images/core/securemsm/trustzone/qsapps/crypto_core/src/openssl/openssl-fips-2.0.5/crypto/rsa/rsa_x931.c 0x00000000   Number         0  rsa_x931.o ABSOLUTE
    /home/mmandra/work/JBP8974PRO/nhlos/trustzone_images/core/securemsm/trustzone/qsapps/crypto_core/src/openssl/openssl-fips-2.0.5/crypto/sha/asm/sha1-armv4-large-cc.S 0x00000000   Number         0  sha1-armv4-large-cc.o ABSOLUTE
    /home/mmandra/work/JBP8974PRO/nhlos/trustzone_images/core/securemsm/trustzone/qsapps/crypto_core/src/openssl/openssl-fips-2.0.5/crypto/sha/asm/sha256-armv4-cc.S 0x00000000   Number         0  sha256-armv4-cc.o ABSOLUTE
    /home/mmandra/work/JBP8974PRO/nhlos/trustzone_images/core/securemsm/trustzone/qsapps/crypto_core/src/openssl/openssl-fips-2.0.5/crypto/sha/asm/sha512-armv4-cc.S 0x00000000   Number         0  sha512-armv4-cc.o ABSOLUTE
    /home/mmandra/work/JBP8974PRO/nhlos/trustzone_images/core/securemsm/trustzone/qsapps/crypto_core/src/openssl/openssl-fips-2.0.5/crypto/sha/sha1dgst.c 0x00000000   Number         0  sha1dgst.o ABSOLUTE
    /home/mmandra/work/JBP8974PRO/nhlos/trustzone_images/core/securemsm/trustzone/qsapps/crypto_core/src/openssl/openssl-fips-2.0.5/crypto/sha/sha256.c 0x00000000   Number         0  sha256.o ABSOLUTE
    /home/mmandra/work/JBP8974PRO/nhlos/trustzone_images/core/securemsm/trustzone/qsapps/crypto_core/src/openssl/openssl-fips-2.0.5/crypto/sha/sha512.c 0x00000000   Number         0  sha512.o ABSOLUTE
    /home/mmandra/work/JBP8974PRO/nhlos/trustzone_images/core/securemsm/trustzone/qsapps/crypto_core/src/openssl/openssl-fips-2.0.5/crypto/thr_id.c 0x00000000   Number         0  thr_id.o ABSOLUTE
    /home/mmandra/work/JBP8974PRO/nhlos/trustzone_images/core/securemsm/trustzone/qsapps/crypto_core/src/openssl/openssl-fips-2.0.5/fips/aes/fips_aes_selftest.c 0x00000000   Number         0  fips_aes_selftest.o ABSOLUTE
    /home/mmandra/work/JBP8974PRO/nhlos/trustzone_images/core/securemsm/trustzone/qsapps/crypto_core/src/openssl/openssl-fips-2.0.5/fips/cmac/fips_cmac_selftest.c 0x00000000   Number         0  fips_cmac_selftest.o ABSOLUTE
    /home/mmandra/work/JBP8974PRO/nhlos/trustzone_images/core/securemsm/trustzone/qsapps/crypto_core/src/openssl/openssl-fips-2.0.5/fips/des/fips_des_selftest.c 0x00000000   Number         0  fips_des_selftest.o ABSOLUTE
    /home/mmandra/work/JBP8974PRO/nhlos/trustzone_images/core/securemsm/trustzone/qsapps/crypto_core/src/openssl/openssl-fips-2.0.5/fips/ecdh/fips_ecdh_selftest.c 0x00000000   Number         0  fips_ecdh_selftest.o ABSOLUTE
    /home/mmandra/work/JBP8974PRO/nhlos/trustzone_images/core/securemsm/trustzone/qsapps/crypto_core/src/openssl/openssl-fips-2.0.5/fips/ecdsa/fips_ecdsa_selftest.c 0x00000000   Number         0  fips_ecdsa_selftest.o ABSOLUTE
    /home/mmandra/work/JBP8974PRO/nhlos/trustzone_images/core/securemsm/trustzone/qsapps/crypto_core/src/openssl/openssl-fips-2.0.5/fips/ecdsa/fips_ecdsa_sign.c 0x00000000   Number         0  fips_ecdsa_sign.o ABSOLUTE
    /home/mmandra/work/JBP8974PRO/nhlos/trustzone_images/core/securemsm/trustzone/qsapps/crypto_core/src/openssl/openssl-fips-2.0.5/fips/fips.c 0x00000000   Number         0  fips.o ABSOLUTE
    /home/mmandra/work/JBP8974PRO/nhlos/trustzone_images/core/securemsm/trustzone/qsapps/crypto_core/src/openssl/openssl-fips-2.0.5/fips/fips_post.c 0x00000000   Number         0  fips_post.o ABSOLUTE
    /home/mmandra/work/JBP8974PRO/nhlos/trustzone_images/core/securemsm/trustzone/qsapps/crypto_core/src/openssl/openssl-fips-2.0.5/fips/hmac/fips_hmac_selftest.c 0x00000000   Number         0  fips_hmac_selftest.o ABSOLUTE
    /home/mmandra/work/JBP8974PRO/nhlos/trustzone_images/core/securemsm/trustzone/qsapps/crypto_core/src/openssl/openssl-fips-2.0.5/fips/rand/fips_drbg_ctr.c 0x00000000   Number         0  fips_drbg_ctr.o ABSOLUTE
    /home/mmandra/work/JBP8974PRO/nhlos/trustzone_images/core/securemsm/trustzone/qsapps/crypto_core/src/openssl/openssl-fips-2.0.5/fips/rand/fips_drbg_ec.c 0x00000000   Number         0  fips_drbg_ec.o ABSOLUTE
    /home/mmandra/work/JBP8974PRO/nhlos/trustzone_images/core/securemsm/trustzone/qsapps/crypto_core/src/openssl/openssl-fips-2.0.5/fips/rand/fips_drbg_hash.c 0x00000000   Number         0  fips_drbg_hash.o ABSOLUTE
    /home/mmandra/work/JBP8974PRO/nhlos/trustzone_images/core/securemsm/trustzone/qsapps/crypto_core/src/openssl/openssl-fips-2.0.5/fips/rand/fips_drbg_hmac.c 0x00000000   Number         0  fips_drbg_hmac.o ABSOLUTE
    /home/mmandra/work/JBP8974PRO/nhlos/trustzone_images/core/securemsm/trustzone/qsapps/crypto_core/src/openssl/openssl-fips-2.0.5/fips/rand/fips_drbg_lib.c 0x00000000   Number         0  fips_drbg_lib.o ABSOLUTE
    /home/mmandra/work/JBP8974PRO/nhlos/trustzone_images/core/securemsm/trustzone/qsapps/crypto_core/src/openssl/openssl-fips-2.0.5/fips/rand/fips_drbg_rand.c 0x00000000   Number         0  fips_drbg_rand.o ABSOLUTE
    /home/mmandra/work/JBP8974PRO/nhlos/trustzone_images/core/securemsm/trustzone/qsapps/crypto_core/src/openssl/openssl-fips-2.0.5/fips/rand/fips_drbg_selftest.c 0x00000000   Number         0  fips_drbg_selftest.o ABSOLUTE
    /home/mmandra/work/JBP8974PRO/nhlos/trustzone_images/core/securemsm/trustzone/qsapps/crypto_core/src/openssl/openssl-fips-2.0.5/fips/rand/fips_rand.c 0x00000000   Number         0  fips_rand.o ABSOLUTE
    /home/mmandra/work/JBP8974PRO/nhlos/trustzone_images/core/securemsm/trustzone/qsapps/crypto_core/src/openssl/openssl-fips-2.0.5/fips/rand/fips_rand_lib.c 0x00000000   Number         0  fips_rand_lib.o ABSOLUTE
    /home/mmandra/work/JBP8974PRO/nhlos/trustzone_images/core/securemsm/trustzone/qsapps/crypto_core/src/openssl/openssl-fips-2.0.5/fips/rand/fips_rand_selftest.c 0x00000000   Number         0  fips_rand_selftest.o ABSOLUTE
    /home/mmandra/work/JBP8974PRO/nhlos/trustzone_images/core/securemsm/trustzone/qsapps/crypto_core/src/openssl/openssl-fips-2.0.5/fips/rsa/fips_rsa_lib.c 0x00000000   Number         0  fips_rsa_lib.o ABSOLUTE
    /home/mmandra/work/JBP8974PRO/nhlos/trustzone_images/core/securemsm/trustzone/qsapps/crypto_core/src/openssl/openssl-fips-2.0.5/fips/rsa/fips_rsa_selftest.c 0x00000000   Number         0  fips_rsa_selftest.o ABSOLUTE
    /home/mmandra/work/JBP8974PRO/nhlos/trustzone_images/core/securemsm/trustzone/qsapps/crypto_core/src/openssl/openssl-fips-2.0.5/fips/rsa/fips_rsa_sign.c 0x00000000   Number         0  fips_rsa_sign.o ABSOLUTE
    /home/mmandra/work/JBP8974PRO/nhlos/trustzone_images/core/securemsm/trustzone/qsapps/crypto_core/src/openssl/openssl-fips-2.0.5/fips/sha/fips_sha1_selftest.c 0x00000000   Number         0  fips_sha1_selftest.o ABSOLUTE
    /home/mmandra/work/JBP8974PRO/nhlos/trustzone_images/core/securemsm/trustzone/qsapps/crypto_core/src/openssl/openssl-fips-2.0.5/fips/utl/fips_enc.c 0x00000000   Number         0  fips_enc.o ABSOLUTE
    /home/mmandra/work/JBP8974PRO/nhlos/trustzone_images/core/securemsm/trustzone/qsapps/crypto_core/src/openssl/openssl-fips-2.0.5/fips/utl/fips_err.c 0x00000000   Number         0  fips_err.o ABSOLUTE
    /home/mmandra/work/JBP8974PRO/nhlos/trustzone_images/core/securemsm/trustzone/qsapps/crypto_core/src/openssl/openssl-fips-2.0.5/fips/utl/fips_lck.c 0x00000000   Number         0  fips_lck.o ABSOLUTE
    /home/mmandra/work/JBP8974PRO/nhlos/trustzone_images/core/securemsm/trustzone/qsapps/crypto_core/src/openssl/openssl-fips-2.0.5/fips/utl/fips_md.c 0x00000000   Number         0  fips_md.o ABSOLUTE
    /home/mmandra/work/JBP8974PRO/nhlos/trustzone_images/core/securemsm/trustzone/qsapps/crypto_core/src/openssl/openssl-fips-2.0.5/fips/utl/fips_mem.c 0x00000000   Number         0  fips_mem.o ABSOLUTE
    /home/mmandra/work/JBP8974PRO/nhlos/trustzone_images/core/securemsm/trustzone/qsapps/crypto_core/src/openssl/rand/rand_lib.c 0x00000000   Number         0  rand_lib.o ABSOLUTE
    /home/mmandra/work/JBP8974PRO/nhlos/trustzone_images/core/securemsm/trustzone/qsapps/crypto_core/src/openssl/rand/rand_poll_target.c 0x00000000   Number         0  rand_poll_target.o ABSOLUTE
    /home/mmandra/work/JBP8974PRO/nhlos/trustzone_images/core/securemsm/trustzone/qsapps/crypto_core/src/openssl/rsa/rsa_lib.c 0x00000000   Number         0  rsa_lib.o ABSOLUTE
    /home/mmandra/work/JBP8974PRO/nhlos/trustzone_images/core/securemsm/trustzone/qsapps/crypto_core/src/openssl/rsa/rsa_sign.c 0x00000000   Number         0  rsa_sign.o ABSOLUTE
    /home/mmandra/work/JBP8974PRO/nhlos/trustzone_images/core/securemsm/trustzone/qsapps/crypto_core/src/openssl/stack/stack.c 0x00000000   Number         0  stack.o ABSOLUTE
    /home/mmandra/work/JBP8974PRO/nhlos/trustzone_images/core/securemsm/trustzone/qsapps/crypto_core/src/pd_rand/pd_rand.c 0x00000000   Number         0  pd_rand.o ABSOLUTE
    /home/sungho/disk/Perforce/1716/DS/NILE/Combination/MSM8976/nhlos/trustzone_images/core/securemsm/trustzone/qsapps/sec_storage/src/CryptoCore/AES.c 0x00000000   Number         0  AES.o ABSOLUTE
    /home/sungho/disk/Perforce/1716/DS/NILE/Combination/MSM8976/nhlos/trustzone_images/core/securemsm/trustzone/qsapps/sec_storage/src/CryptoCore/DSA/dsa_asn1.c 0x00000000   Number         0  dsa_asn1.o ABSOLUTE
    /home/sungho/disk/Perforce/1716/DS/NILE/Combination/MSM8976/nhlos/trustzone_images/core/securemsm/trustzone/qsapps/sec_storage/src/CryptoCore/DSA/dsa_gen.c 0x00000000   Number         0  dsa_gen.o ABSOLUTE
    /home/sungho/disk/Perforce/1716/DS/NILE/Combination/MSM8976/nhlos/trustzone_images/core/securemsm/trustzone/qsapps/sec_storage/src/CryptoCore/DSA/dsa_key.c 0x00000000   Number         0  dsa_key.o ABSOLUTE
    /home/sungho/disk/Perforce/1716/DS/NILE/Combination/MSM8976/nhlos/trustzone_images/core/securemsm/trustzone/qsapps/sec_storage/src/CryptoCore/DSA/dsa_lib.c 0x00000000   Number         0  dsa_lib.o ABSOLUTE
    /home/sungho/disk/Perforce/1716/DS/NILE/Combination/MSM8976/nhlos/trustzone_images/core/securemsm/trustzone/qsapps/sec_storage/src/CryptoCore/DSA/dsa_ossl.c 0x00000000   Number         0  dsa_ossl.o ABSOLUTE
    /home/sungho/disk/Perforce/1716/DS/NILE/Combination/MSM8976/nhlos/trustzone_images/core/securemsm/trustzone/qsapps/sec_storage/src/CryptoCore/DSA/dsa_sign.c 0x00000000   Number         0  dsa_sign.o ABSOLUTE
    /home/sungho/disk/Perforce/1716/DS/NILE/Combination/MSM8976/nhlos/trustzone_images/core/securemsm/trustzone/qsapps/sec_storage/src/CryptoCore/DSA/dsa_vrf.c 0x00000000   Number         0  dsa_vrf.o ABSOLUTE
    /home/sungho/disk/Perforce/1716/DS/NILE/Combination/MSM8976/nhlos/trustzone_images/core/securemsm/trustzone/qsapps/sec_storage/src/CryptoCore/DSA/x_long.c 0x00000000   Number         0  x_long.o ABSOLUTE
    /home/sungho/disk/Perforce/1716/DS/NILE/Combination/MSM8976/nhlos/trustzone_images/core/securemsm/trustzone/qsapps/sec_storage/src/CryptoCore/ECDH.c 0x00000000   Number         0  ECDH.o ABSOLUTE
    /home/sungho/disk/Perforce/1716/DS/NILE/Combination/MSM8976/nhlos/trustzone_images/core/securemsm/trustzone/qsapps/sec_storage/src/CryptoCore/RSA.c 0x00000000   Number         0  RSA.o ABSOLUTE
    /home/sungho/disk/Perforce/1716/DS/NILE/Combination/MSM8976/nhlos/trustzone_images/core/securemsm/trustzone/qsapps/sec_storage/src/CryptoCore/ss_CryptoCore_init.c 0x00000000   Number         0  ss_CryptoCore_init.o ABSOLUTE
    /home/sungho/disk/Perforce/1716/DS/NILE/Combination/MSM8976/nhlos/trustzone_images/core/securemsm/trustzone/qsapps/sec_storage/src/CryptoCore/ss_fips.c 0x00000000   Number         0  ss_fips.o ABSOLUTE
    /home/sungho/disk/Perforce/1716/DS/NILE/Combination/MSM8976/nhlos/trustzone_images/core/securemsm/trustzone/qsapps/sec_storage/src/CryptoCore/ss_ta_asymmetric_crypto_api.c 0x00000000   Number         0  ss_ta_asymmetric_crypto_api.o ABSOLUTE
    /home/sungho/disk/Perforce/1716/DS/NILE/Combination/MSM8976/nhlos/trustzone_images/core/securemsm/trustzone/qsapps/sec_storage/src/Qualcomm/sec_driver/gen_entropy.c 0x00000000   Number         0  gen_entropy.o ABSOLUTE
    /home/sungho/disk/Perforce/1716/DS/NILE/Combination/MSM8976/nhlos/trustzone_images/core/securemsm/trustzone/qsapps/sec_storage/src/Qualcomm/sec_driver/ss_memory_internal.c 0x00000000   Number         0  ss_memory_internal.o ABSOLUTE
    /home/sungho/disk/Perforce/1716/DS/NILE/Combination/MSM8976/nhlos/trustzone_images/core/securemsm/trustzone/qsapps/sec_storage/src/Qualcomm/sec_driver/stub_secdrv.c 0x00000000   Number         0  stub_secdrv.o ABSOLUTE
    /home/sungho/disk/Perforce/1716/DS/NILE/Combination/MSM8976/nhlos/trustzone_images/core/securemsm/trustzone/qsapps/sec_storage/src/Qualcomm/trusted_app/stub_secrsa.c 0x00000000   Number         0  stub_secrsa.o ABSOLUTE
    /home/sungho/disk/Perforce/1716/DS/NILE/Combination/MSM8976/nhlos/trustzone_images/core/securemsm/trustzone/qsapps/sec_storage/src/Qualcomm/trusted_app/tz_key_wrapping.c 0x00000000   Number         0  tz_key_wrapping.o ABSOLUTE
    /home/sungho/disk/Perforce/1716/DS/NILE/Combination/MSM8976/nhlos/trustzone_images/core/securemsm/trustzone/qsapps/sec_storage/src/Qualcomm/trusted_app/tz_main.c 0x00000000   Number         0  tz_main.o ABSOLUTE
    /home/sungho/disk/Perforce/1716/DS/NILE/Combination/MSM8976/nhlos/trustzone_images/core/securemsm/trustzone/qsapps/sec_storage/src/Qualcomm/trusted_app/tz_ta_crypto_static.c 0x00000000   Number         0  tz_ta_crypto_static.o ABSOLUTE
    /home/sungho/disk/Perforce/1716/DS/NILE/Combination/MSM8976/nhlos/trustzone_images/core/securemsm/trustzone/qsapps/sec_storage/src/X509v3_base64_decoder.c 0x00000000   Number         0  X509v3_base64_decoder.o ABSOLUTE
    /home/sungho/disk/Perforce/1716/DS/NILE/Combination/MSM8976/nhlos/trustzone_images/core/securemsm/trustzone/qsapps/sec_storage/src/X509v3_verify.c 0x00000000   Number         0  X509v3_verify.o ABSOLUTE
    /home/sungho/disk/Perforce/1716/DS/NILE/Combination/MSM8976/nhlos/trustzone_images/core/securemsm/trustzone/qsapps/sec_storage/src/asn1.c 0x00000000   Number         0  asn1.o ABSOLUTE
    /home/sungho/disk/Perforce/1716/DS/NILE/Combination/MSM8976/nhlos/trustzone_images/core/securemsm/trustzone/qsapps/sec_storage/src/sec_driver/cache_table.c 0x00000000   Number         0  cache_table.o ABSOLUTE
    /home/sungho/disk/Perforce/1716/DS/NILE/Combination/MSM8976/nhlos/trustzone_images/core/securemsm/trustzone/qsapps/sec_storage/src/sec_driver/cryptolog.c 0x00000000   Number         0  cryptolog.o ABSOLUTE
    /home/sungho/disk/Perforce/1716/DS/NILE/Combination/MSM8976/nhlos/trustzone_images/core/securemsm/trustzone/qsapps/sec_storage/src/sec_driver/dmp.c 0x00000000   Number         0  dmp.o ABSOLUTE
    /home/sungho/disk/Perforce/1716/DS/NILE/Combination/MSM8976/nhlos/trustzone_images/core/securemsm/trustzone/qsapps/sec_storage/src/sec_driver/dumpdrv_hw_hal.c 0x00000000   Number         0  dumpdrv_hw_hal.o ABSOLUTE
    /home/sungho/disk/Perforce/1716/DS/NILE/Combination/MSM8976/nhlos/trustzone_images/core/securemsm/trustzone/qsapps/sec_storage/src/sec_driver/gaf.c 0x00000000   Number         0  gaf.o ABSOLUTE
    /home/sungho/disk/Perforce/1716/DS/NILE/Combination/MSM8976/nhlos/trustzone_images/core/securemsm/trustzone/qsapps/sec_storage/src/sec_driver/kernel_stack_64.c 0x00000000   Number         0  kernel_stack_64.o ABSOLUTE
    /home/sungho/disk/Perforce/1716/DS/NILE/Combination/MSM8976/nhlos/trustzone_images/core/securemsm/trustzone/qsapps/sec_storage/src/sec_driver/odex.c 0x00000000   Number         0  odex.o ABSOLUTE
    /home/sungho/disk/Perforce/1716/DS/NILE/Combination/MSM8976/nhlos/trustzone_images/core/securemsm/trustzone/qsapps/sec_storage/src/sec_driver/opcode.c 0x00000000   Number         0  opcode.o ABSOLUTE
    /home/sungho/disk/Perforce/1716/DS/NILE/Combination/MSM8976/nhlos/trustzone_images/core/securemsm/trustzone/qsapps/sec_storage/src/sec_driver/selftest.c 0x00000000   Number         0  selftest.o ABSOLUTE
    /home/sungho/disk/Perforce/1716/DS/NILE/Combination/MSM8976/nhlos/trustzone_images/core/securemsm/trustzone/qsapps/sec_storage/src/sec_driver/ss_SHA256.c 0x00000000   Number         0  ss_SHA256.o ABSOLUTE
    /home/sungho/disk/Perforce/1716/DS/NILE/Combination/MSM8976/nhlos/trustzone_images/core/securemsm/trustzone/qsapps/sec_storage/src/sec_driver/ss_SHA512.c 0x00000000   Number         0  ss_SHA512.o ABSOLUTE
    /home/sungho/disk/Perforce/1716/DS/NILE/Combination/MSM8976/nhlos/trustzone_images/core/securemsm/trustzone/qsapps/sec_storage/src/sec_driver/ss_SHORT_SHA256.c 0x00000000   Number         0  ss_SHORT_SHA256.o ABSOLUTE
    /home/sungho/disk/Perforce/1716/DS/NILE/Combination/MSM8976/nhlos/trustzone_images/core/securemsm/trustzone/qsapps/sec_storage/src/sec_driver/ss_SKEIN.c 0x00000000   Number         0  ss_SKEIN.o ABSOLUTE
    /home/sungho/disk/Perforce/1716/DS/NILE/Combination/MSM8976/nhlos/trustzone_images/core/securemsm/trustzone/qsapps/sec_storage/src/sec_driver/ss_aes.c 0x00000000   Number         0  ss_aes.o ABSOLUTE
    /home/sungho/disk/Perforce/1716/DS/NILE/Combination/MSM8976/nhlos/trustzone_images/core/securemsm/trustzone/qsapps/sec_storage/src/sec_driver/ss_config.c 0x00000000   Number         0  ss_config.o ABSOLUTE
    /home/sungho/disk/Perforce/1716/DS/NILE/Combination/MSM8976/nhlos/trustzone_images/core/securemsm/trustzone/qsapps/sec_storage/src/sec_driver/ss_hash.c 0x00000000   Number         0  ss_hash.o ABSOLUTE
    /home/sungho/disk/Perforce/1716/DS/NILE/Combination/MSM8976/nhlos/trustzone_images/core/securemsm/trustzone/qsapps/sec_storage/src/sec_driver/ss_helper_functions.c 0x00000000   Number         0  ss_helper_functions.o ABSOLUTE
    /home/sungho/disk/Perforce/1716/DS/NILE/Combination/MSM8976/nhlos/trustzone_images/core/securemsm/trustzone/qsapps/sec_storage/src/sec_driver/ss_key_generation.c 0x00000000   Number         0  ss_key_generation.o ABSOLUTE
    /home/sungho/disk/Perforce/1716/DS/NILE/Combination/MSM8976/nhlos/trustzone_images/core/securemsm/trustzone/qsapps/sec_storage/src/sec_driver/ss_mapped_regions_registry.c 0x00000000   Number         0  ss_mapped_regions_registry.o ABSOLUTE
    /home/sungho/disk/Perforce/1716/DS/NILE/Combination/MSM8976/nhlos/trustzone_images/core/securemsm/trustzone/qsapps/sec_storage/src/sec_driver/ss_parse_ustack.c 0x00000000   Number         0  ss_parse_ustack.o ABSOLUTE
    /home/sungho/disk/Perforce/1716/DS/NILE/Combination/MSM8976/nhlos/trustzone_images/core/securemsm/trustzone/qsapps/sec_storage/src/sec_driver/task.c 0x00000000   Number         0  task.o ABSOLUTE
    /home/sungho/disk/Perforce/1716/DS/NILE/Combination/MSM8976/nhlos/trustzone_images/core/securemsm/trustzone/qsapps/sec_storage/src/sec_driver/tz_prng.c 0x00000000   Number         0  tz_prng.o ABSOLUTE
    /home/sungho/disk/Perforce/1716/DS/NILE/Combination/MSM8976/nhlos/trustzone_images/core/securemsm/trustzone/qsapps/sec_storage/src/sec_driver/vmem_64.c 0x00000000   Number         0  vmem_64.o ABSOLUTE
    /home/sungho/disk/Perforce/1716/DS/NILE/Combination/MSM8976/nhlos/trustzone_images/core/securemsm/trustzone/qsapps/sec_storage/src/ss_asn1.c 0x00000000   Number         0  ss_asn1.o ABSOLUTE
    /home/sungho/disk/Perforce/1716/DS/NILE/Combination/MSM8976/nhlos/trustzone_images/core/securemsm/trustzone/qsapps/sec_storage/src/ss_discrete_hannover_transform.c 0x00000000   Number         0  ss_discrete_hannover_transform.o ABSOLUTE
    /home/sungho/disk/Perforce/1716/DS/NILE/Combination/MSM8976/nhlos/trustzone_images/core/securemsm/trustzone/qsapps/sec_storage/src/ss_encoder.c 0x00000000   Number         0  ss_encoder.o ABSOLUTE
    /home/sungho/disk/Perforce/1716/DS/NILE/Combination/MSM8976/nhlos/trustzone_images/core/securemsm/trustzone/qsapps/sec_storage/src/ss_key_destruction.c 0x00000000   Number         0  ss_key_destruction.o ABSOLUTE
    /home/sungho/disk/Perforce/1716/DS/NILE/Combination/MSM8976/nhlos/trustzone_images/core/securemsm/trustzone/qsapps/sec_storage/src/ss_key_encryption.c 0x00000000   Number         0  ss_key_encryption.o ABSOLUTE
    /home/sungho/disk/Perforce/1716/DS/NILE/Combination/MSM8976/nhlos/trustzone_images/core/securemsm/trustzone/qsapps/sec_storage/src/ss_key_management/ss_key_management.c 0x00000000   Number         0  ss_key_management.o ABSOLUTE
    /home/sungho/disk/Perforce/1716/DS/NILE/Combination/MSM8976/nhlos/trustzone_images/core/securemsm/trustzone/qsapps/sec_storage/src/ss_key_management/ss_key_management_helper_functions.c 0x00000000   Number         0  ss_key_management_helper_functions.o ABSOLUTE
    /home/sungho/disk/Perforce/1716/DS/NILE/Combination/MSM8976/nhlos/trustzone_images/core/securemsm/trustzone/qsapps/sec_storage/src/ss_key_management/ss_key_management_hmac_key_generation.c 0x00000000   Number         0  ss_key_management_hmac_key_generation.o ABSOLUTE
    /home/sungho/disk/Perforce/1716/DS/NILE/Combination/MSM8976/nhlos/trustzone_images/core/securemsm/trustzone/qsapps/sec_storage/src/ss_key_management/ss_key_management_lsm.c 0x00000000   Number         0  ss_key_management_lsm.o ABSOLUTE
    /home/sungho/disk/Perforce/1716/DS/NILE/Combination/MSM8976/nhlos/trustzone_images/core/securemsm/trustzone/qsapps/sec_storage/src/ss_key_management/ss_key_management_provisioned_key_wrapper.c 0x00000000   Number         0  ss_key_management_provisioned_key_wrapper.o ABSOLUTE
    /home/sungho/disk/Perforce/1716/DS/NILE/Combination/MSM8976/nhlos/trustzone_images/core/securemsm/trustzone/qsapps/sec_storage/src/ss_key_management/ss_key_management_skmm_key_generation.c 0x00000000   Number         0  ss_key_management_skmm_key_generation.o ABSOLUTE
    /home/sungho/disk/Perforce/1716/DS/NILE/Combination/MSM8976/nhlos/trustzone_images/core/securemsm/trustzone/qsapps/sec_storage/src/ss_key_management/ss_key_management_wrapper.c 0x00000000   Number         0  ss_key_management_wrapper.o ABSOLUTE
    /home/sungho/disk/Perforce/1716/DS/NILE/Combination/MSM8976/nhlos/trustzone_images/core/securemsm/trustzone/qsapps/sec_storage/src/ss_lable_processing.c 0x00000000   Number         0  ss_lable_processing.o ABSOLUTE
    /home/sungho/disk/Perforce/1716/DS/NILE/Combination/MSM8976/nhlos/trustzone_images/core/securemsm/trustzone/qsapps/sec_storage/src/ss_memory_management.c 0x00000000   Number         0  ss_memory_management.o ABSOLUTE
    /home/sungho/disk/Perforce/1716/DS/NILE/Combination/MSM8976/nhlos/trustzone_images/core/securemsm/trustzone/qsapps/sec_storage/src/ss_process_ss_id.c 0x00000000   Number         0  ss_process_ss_id.o ABSOLUTE
    /home/sungho/disk/Perforce/1716/DS/NILE/Combination/MSM8976/nhlos/trustzone_images/core/securemsm/trustzone/qsapps/sec_storage/src/tz_ta_crypto_api_common.c 0x00000000   Number         0  tz_ta_crypto_api_common.o ABSOLUTE
    /home/sungho/disk/Perforce/1716/DS/NILE/Combination/MSM8976/nhlos/trustzone_images/core/securemsm/trustzone/qsapps/sec_storage/src/tz_ta_sstorage_secdrv_interface.c 0x00000000   Number         0  tz_ta_sstorage_secdrv_interface.o ABSOLUTE
    /home/sungho/disk/Perforce/1716/DS/NILE/Combination/MSM8976/nhlos/trustzone_images/core/securemsm/trustzone/qsapps/sec_storage/src/tz_ta_sstorage_service.c 0x00000000   Number         0  tz_ta_sstorage_service.o ABSOLUTE
    /local/mnt/workspace/CRMBuilds/TZ.BF.3.0-00628-M8976AAAAANAZT-1_20150910_095700/b/trustzone_images/core/securemsm/trustzone/qsapps/libs/applib/qsee/build/sampleapp/scorpion/MAYAANAA/src/tzapp_entry.o.i 0x00000000   Number         0  tzapp_entry.o ABSOLUTE
    /local/mnt/workspace/CRMBuilds/TZ.BF.3.0.3-00014-M8976AAAAANAZT-1_20160119_081927/b/trustzone_images/core/securemsm/trustzone/qsapps/libs/applib/proxy/src/prxy_services.c 0x00000000   Number         0  prxy_services.o ABSOLUTE
    /local/mnt/workspace/CRMBuilds/TZ.BF.3.0.3-00014-M8976AAAAANAZT-1_20160119_081927/b/trustzone_images/core/securemsm/trustzone/qsapps/libs/applib/qsee/build/sampleapp/scorpion/MAYAANAA/src/tzapp_syscall.o.i 0x00000000   Number         0  tzapp_syscall.o ABSOLUTE
    /local/mnt/workspace/CRMBuilds/TZ.BF.3.0.3-00014-M8976AAAAANAZT-1_20160119_081927/b/trustzone_images/core/securemsm/trustzone/qsapps/libs/applib/qsee/src/qsee_cache_shim.c 0x00000000   Number         0  qsee_cache_shim.o ABSOLUTE
    /local/mnt/workspace/CRMBuilds/TZ.BF.3.0.3-00014-M8976AAAAANAZT-1_20160119_081927/b/trustzone_images/core/securemsm/trustzone/qsapps/libs/applib/qsee/src/qsee_crypto_shim.c 0x00000000   Number         0  qsee_crypto_shim.o ABSOLUTE
    /local/mnt/workspace/CRMBuilds/TZ.BF.3.0.3-00014-M8976AAAAANAZT-1_20160119_081927/b/trustzone_images/core/securemsm/trustzone/qsapps/libs/applib/qsee/src/tzapp_lib_main.c 0x00000000   Number         0  tzapp_lib_main.o ABSOLUTE
    dc.s                                     0x00000000   Number         0  dc.o ABSOLUTE
    .text                                    0x0000007c   Section        0  tz_ta_crypto_static.o(.text)
    .text                                    0x000002ea   Section        0  stub_secrsa.o(.text)
    .text                                    0x000002f8   Section        0  ss_key_destruction.o(.text)
    .text                                    0x0000037c   Section        0  tz_ta_crypto_api_common.o(.text)
    init_HMAC_SHA512                         0x0000037d   Thumb Code   174  tz_ta_crypto_api_common.o(.text)
    update_HMAC_SHA512                       0x0000042b   Thumb Code    28  tz_ta_crypto_api_common.o(.text)
    final_HMAC_SHA512                        0x00000447   Thumb Code   160  tz_ta_crypto_api_common.o(.text)
    .text                                    0x00000a2e   Section        0  ss_lable_processing.o(.text)
    ntieNR1293886421                         0x00000a2f   Thumb Code    38  ss_lable_processing.o(.text)
    rrawttDiUcefoys1293886421                0x00000a55   Thumb Code    38  ss_lable_processing.o(.text)
    mOdsor1293886421                         0x00000a7b   Thumb Code  1510  ss_lable_processing.o(.text)
    rrurtNcnei1293886421                     0x00001061   Thumb Code  1524  ss_lable_processing.o(.text)
    .text                                    0x000017f8   Section        0  ss_key_management.o(.text)
    ss_add_pw_to_key                         0x000017f9   Thumb Code    86  ss_key_management.o(.text)
    .text                                    0x00001954   Section        0  ss_key_management_wrapper.o(.text)
    SS_UItoA                                 0x00001955   Thumb Code    16  ss_key_management_wrapper.o(.text)
    SS_AtoUI                                 0x00001965   Thumb Code    24  ss_key_management_wrapper.o(.text)
    .text                                    0x00001d50   Section        0  ss_key_management_provisioned_key_wrapper.o(.text)
    .text                                    0x00001e2a   Section        0  ss_key_management_hmac_key_generation.o(.text)
    .text                                    0x00002008   Section        0  ss_memory_management.o(.text)
    .text                                    0x00002140   Section        0  ss_process_ss_id.o(.text)
    .text                                    0x0000229e   Section        0  X509v3_base64_decoder.o(.text)
    .text                                    0x00002438   Section        0  X509v3_verify.o(.text)
    conver_int_to_char                       0x00002439   Thumb Code    42  X509v3_verify.o(.text)
    .text                                    0x00002a3a   Section        0  stub_secdrv.o(.text)
    .text                                    0x00002aec   Section        0  gen_entropy.o(.text)
    .text                                    0x00002b04   Section        0  ss_SHA256.o(.text)
    .text                                    0x00002b28   Section        0  ss_SHA512.o(.text)
    .text                                    0x00002b4c   Section        0  ss_SHORT_SHA256.o(.text)
    i2c                                      0x00002b4d   Thumb Code    18  ss_SHORT_SHA256.o(.text)
    c2i                                      0x00002b5f   Thumb Code    34  ss_SHORT_SHA256.o(.text)
    ss_sha256_block_data_order               0x00002b81   Thumb Code  3954  ss_SHORT_SHA256.o(.text)
    HASH_INIT                                0x00003af3   Thumb Code   100  ss_SHORT_SHA256.o(.text)
    SS_HASH_UPDATE                           0x00003b57   Thumb Code   174  ss_SHORT_SHA256.o(.text)
    SS_HASH_FINAL                            0x00003c05   Thumb Code   182  ss_SHORT_SHA256.o(.text)
    .text                                    0x00003cde   Section        0  ss_hash.o(.text)
    .text                                    0x00003e6e   Section        0  ss_helper_functions.o(.text)
    .text                                    0x00003e8a   Section        0  ss_key_generation.o(.text)
    .text                                    0x00003f86   Section        0  opcode.o(.text)
    .text                                    0x0000404c   Section        0  ss_aes.o(.text)
    .text                                    0x00004076   Section        0  dumpdrv_hw_hal.o(.text)
    .text                                    0x0000411a   Section        0  ss_asn1.o(.text)
    getNumOfSignificantDigits                0x0000411b   Thumb Code    28  ss_asn1.o(.text)
    setDataLength                            0x00004137   Thumb Code    22  ss_asn1.o(.text)
    getDataLength                            0x0000414d   Thumb Code    34  ss_asn1.o(.text)
    .text                                    0x000042de   Section        0  ss_encoder.o(.text)
    .text                                    0x00004342   Section        0  RSA.o(.text)
    .text                                    0x000045a0   Section        0  ss_fips.o(.text)
    .text                                    0x000045ba   Section        0  ss_CryptoCore_init.o(.text)
    mc_rand_adapter                          0x000045bb   Thumb Code    18  ss_CryptoCore_init.o(.text)
    .text                                    0x000045e8   Section        0  dsa_gen.o(.text)
    .text                                    0x00005128   Section        0  dsa_key.o(.text)
    BN_secure_new                            0x00005129   Thumb Code    20  dsa_key.o(.text)
    dsa_builtin_keygen                       0x0000513d   Thumb Code   196  dsa_key.o(.text)
    .text                                    0x0000520a   Section        0  dsa_lib.o(.text)
    .text                                    0x00005436   Section        0  dsa_sign.o(.text)
    .text                                    0x00005446   Section        0  dsa_vrf.o(.text)
    .text                                    0x00005450   Section        0  prxy_services.o(.text)
    .text                                    0x00005e26   Section        0  qsee_crypto_shim.o(.text)
    .text                                    0x000061ec   Section        0  pd_rand.o(.text)
    .text                                    0x00006226   Section        0  a_dup.o(.text)
    .text                                    0x000062da   Section        0  tasn_fre.o(.text)
    asn1_item_combine_free                   0x000063c9   Thumb Code   352  tasn_fre.o(.text)
    .text                                    0x0000653a   Section        0  tasn_enc.o(.text)
    der_cmp                                  0x0000653b   Thumb Code    36  tasn_enc.o(.text)
    asn1_set_seq_out                         0x0000655f   Thumb Code   396  tasn_enc.o(.text)
    asn1_template_ex_i2d                     0x000066eb   Thumb Code   522  tasn_enc.o(.text)
    asn1_i2d_ex_primitive                    0x00006a37   Thumb Code   162  tasn_enc.o(.text)
    asn1_item_flags_i2d                      0x00006d63   Thumb Code   130  tasn_enc.o(.text)
    .text                                    0x00006dfc   Section        0  tasn_new.o(.text)
    asn1_primitive_clear                     0x00006dfd   Thumb Code    48  tasn_new.o(.text)
    asn1_item_clear                          0x00006e2d   Thumb Code    58  tasn_new.o(.text)
    asn1_template_clear                      0x00006e67   Thumb Code    34  tasn_new.o(.text)
    asn1_item_ex_combine_new                 0x00006f8b   Thumb Code   418  tasn_new.o(.text)
    .text                                    0x0000714a   Section        0  ex_data.o(.text)
    impl_check                               0x0000714b   Thumb Code    24  ex_data.o(.text)
    ex_class_item_hash                       0x00007195   Thumb Code     4  ex_data.o(.text)
    ex_class_item_LHASH_HASH                 0x00007199   Thumb Code     2  ex_data.o(.text)
    ex_class_item_cmp                        0x0000719b   Thumb Code     8  ex_data.o(.text)
    ex_class_item_LHASH_COMP                 0x000071a3   Thumb Code     2  ex_data.o(.text)
    ex_data_check                            0x000071a5   Thumb Code    52  ex_data.o(.text)
    def_cleanup_util_cb                      0x000071d9   Thumb Code     4  ex_data.o(.text)
    def_cleanup_cb                           0x000071dd   Thumb Code    30  ex_data.o(.text)
    def_get_class                            0x000071fb   Thumb Code   140  ex_data.o(.text)
    def_add_index                            0x00007287   Thumb Code   174  ex_data.o(.text)
    int_new_class                            0x00007335   Thumb Code    18  ex_data.o(.text)
    int_cleanup                              0x00007347   Thumb Code    54  ex_data.o(.text)
    int_get_new_index                        0x0000737d   Thumb Code    52  ex_data.o(.text)
    int_new_ex_data                          0x000073d7   Thumb Code   194  ex_data.o(.text)
    int_dup_ex_data                          0x00007505   Thumb Code   234  ex_data.o(.text)
    int_free_ex_data                         0x000075ef   Thumb Code   198  ex_data.o(.text)
    __sta__dyninit                           0x000077b3   Thumb Code    84  ex_data.o(.text)
    .text                                    0x00007806   Section        0  rsa_lib.o(.text)
    .text                                    0x00007ab2   Section        0  err.o(.text)
    .text                                    0x00007ab8   Section        0  bn_ctx.o(.text)
    BN_STACK_reset                           0x00007ab9   Thumb Code     6  bn_ctx.o(.text)
    BN_POOL_reset                            0x00007abf   Thumb Code    54  bn_ctx.o(.text)
    BN_STACK_init                            0x00007b11   Thumb Code    10  bn_ctx.o(.text)
    BN_POOL_init                             0x00007b1b   Thumb Code    14  bn_ctx.o(.text)
    BN_POOL_finish                           0x00007b6d   Thumb Code    56  bn_ctx.o(.text)
    BN_STACK_finish                          0x00007ba5   Thumb Code    14  bn_ctx.o(.text)
    BN_STACK_push                            0x00007bd5   Thumb Code   104  bn_ctx.o(.text)
    BN_POOL_release                          0x00007c73   Thumb Code    38  bn_ctx.o(.text)
    BN_STACK_pop                             0x00007c99   Thumb Code    14  bn_ctx.o(.text)
    BN_POOL_get                              0x00007cd5   Thumb Code   164  bn_ctx.o(.text)
    .text                                    0x00007dbc   Section        0  bn_add.o(.text)
    .text                                    0x0000807a   Section        0  bn_mont.o(.text)
    BN_from_montgomery_word                  0x0000807b   Thumb Code   462  bn_mont.o(.text)
    .text                                    0x000085c2   Section        0  bn_div.o(.text)
    .text                                    0x0000896e   Section        0  bn_shift.o(.text)
    .text                                    0x00008c2e   Section        0  bn_prime.o(.text)
    witness                                  0x00008c6b   Thumb Code   180  bn_prime.o(.text)
    probable_prime_dh                        0x00008fa1   Thumb Code   168  bn_prime.o(.text)
    probable_prime_dh_safe                   0x00009049   Thumb Code   262  bn_prime.o(.text)
    probable_prime                           0x0000914f   Thumb Code   186  bn_prime.o(.text)
    .text                                    0x000093aa   Section        0  bn_gcd.o(.text)
    euclid                                   0x000093ab   Thumb Code   220  bn_gcd.o(.text)
    BN_mod_inverse_no_branch                 0x000094fd   Thumb Code   448  bn_gcd.o(.text)
    .text                                    0x00009b30   Section        0  ec_oct.o(.text)
    .text                                    0x00009cb8   Section        0  ech_key.o(.text)
    .text                                    0x00009cde   Section        0  rsa_crpt.o(.text)
    rsa_get_public_exp                       0x00009d75   Thumb Code   138  rsa_crpt.o(.text)
    .text                                    0x00009f4c   Section        0  fips_rand_lib.o(.text)
    .text                                    0x0000a170   Section        0  qsee_cache_shim.o(.text)
    .text                                    0x0000a1d6   Section        0  ctr_drbg_ossl.o(.text)
    drbg_ossl_init_internal                  0x0000a1d7   Thumb Code   162  ctr_drbg_ossl.o(.text)
    drbg_ossl_cleanup                        0x0000a279   Thumb Code    34  ctr_drbg_ossl.o(.text)
    drbg_ossl_add                            0x0000a29b   Thumb Code   214  ctr_drbg_ossl.o(.text)
    drbg_ossl_seed                           0x0000a371   Thumb Code     6  ctr_drbg_ossl.o(.text)
    drbg_ossl_reseed_internal                0x0000a377   Thumb Code    28  ctr_drbg_ossl.o(.text)
    drbg_ossl_bytes                          0x0000a393   Thumb Code   116  ctr_drbg_ossl.o(.text)
    drbg_ossl_status                         0x0000a407   Thumb Code    30  ctr_drbg_ossl.o(.text)
    __sta__dyninit                           0x0000a4ab   Thumb Code    74  ctr_drbg_ossl.o(.text)
    .text                                    0x0000a4f4   Section        0  libc_functions.o(.text)
    .text                                    0x0000a50a   Section        0  ech_lib.o(.text)
    .text                                    0x0000a532   Section        0  a_object.o(.text)
    .text                                    0x0000a6b2   Section        0  tasn_utl.o(.text)
    asn1_get_enc_ptr                         0x0000a6fd   Thumb Code    32  tasn_utl.o(.text)
    .text                                    0x0000a85e   Section        0  a_type.o(.text)
    .text                                    0x0000a93a   Section        0  a_int.o(.text)
    .text                                    0x0000ae4a   Section        0  a_bitstr.o(.text)
    .text                                    0x0000b132   Section        0  c_all.o(.text)
    .text                                    0x0000b140   Section        0  names.o(.text)
    .text                                    0x0000b1be   Section        0  evp_lib.o(.text)
    .text                                    0x0000b226   Section        0  stack.o(.text)
    internal_find                            0x0000b40b   Thumb Code   112  stack.o(.text)
    .text                                    0x0000b544   Section        0  buffer.o(.text)
    .text                                    0x0000b5fe   Section        0  ecp_oct.o(.text)
    .text                                    0x0000bc9a   Section        0  bn_recp.o(.text)
    .text                                    0x0000bf60   Section        0  bn_mul.o(.text)
    .text                                    0x0000cf40   Section        0  bn_sqr.o(.text)
    .text                                    0x0000d1fc   Section        0  bn_asm.o(.text)
    .text                                    0x0000e672   Section        0  bn_blind.o(.text)
    .text                                    0x0000e98e   Section        0  bn_word.o(.text)
    .text                                    0x0000ebb2   Section        0  sha1dgst.o(.text)
    .text                                    0x0000ed92   Section        0  thr_id.o(.text)
    .text                                    0x0000eda8   Section        0  cryptlib.o(.text)
    .text                                    0x0000edaa   Section        0  fips_drbg_rand.o(.text)
    fips_drbg_bytes                          0x0000edb7   Thumb Code   142  fips_drbg_rand.o(.text)
    fips_drbg_pseudo                         0x0000ee45   Thumb Code    20  fips_drbg_rand.o(.text)
    fips_drbg_status                         0x0000ee59   Thumb Code    24  fips_drbg_rand.o(.text)
    fips_drbg_cleanup                        0x0000ee71   Thumb Code    14  fips_drbg_rand.o(.text)
    fips_drbg_seed                           0x0000ee7f   Thumb Code    28  fips_drbg_rand.o(.text)
    fips_drbg_add                            0x0000ee9b   Thumb Code    46  fips_drbg_rand.o(.text)
    __sta__dyninit                           0x0000eed5   Thumb Code    84  fips_drbg_rand.o(.text)
    .text                                    0x0000ef28   Section        0  ctr_drbg.o(.text)
    v_increase                               0x0000ef29   Thumb Code    22  ctr_drbg.o(.text)
    set_uint32                               0x0000ef3f   Thumb Code    16  ctr_drbg.o(.text)
    BCC                                      0x0000ef4f   Thumb Code    64  ctr_drbg.o(.text)
    Block_Cipher_df                          0x0000ef8f   Thumb Code   314  ctr_drbg.o(.text)
    CTR_DRBG_Update                          0x0000f0c9   Thumb Code   142  ctr_drbg.o(.text)
    .text                                    0x0000f47e   Section        0  bn_kron.o(.text)
    .text                                    0x0000f668   Section        0  c_allc.o(.text)
    .text                                    0x0000f66a   Section        0  o_names.o(.text)
    obj_name_hash                            0x0000f66b   Thumb Code    54  o_names.o(.text)
    obj_name_LHASH_HASH                      0x0000f6a1   Thumb Code     2  o_names.o(.text)
    obj_name_cmp                             0x0000f6a3   Thumb Code    72  o_names.o(.text)
    obj_name_LHASH_COMP                      0x0000f6eb   Thumb Code     2  o_names.o(.text)
    .text                                    0x0000f82c   Section        0  obj_lib.o(.text)
    .text                                    0x0000f956   Section        0  ec_cvt.o(.text)
    .text                                    0x0000f99a   Section        0  rsa_ssl.o(.text)
    .text                                    0x0000fb02   Section        0  rsa_x931.o(.text)
    .text                                    0x0000fc3e   Section        0  rsa_oaep.o(.text)
    MGF1                                     0x0000fd03   Thumb Code    30  rsa_oaep.o(.text)
    .text                                    0x0000ffe2   Section        0  rsa_none.o(.text)
    .text                                    0x0001006e   Section        0  rsa_pk1.o(.text)
    .text                                    0x000102b0   Section        0  fips_lck.o(.text)
    .text                                    0x00010302   Section        0  fips_mem.o(.text)
    fips_malloc_def                          0x00010303   Thumb Code     4  fips_mem.o(.text)
    fips_free_def                            0x00010307   Thumb Code     4  fips_mem.o(.text)
    __sta__dyninit                           0x00010337   Thumb Code    38  fips_mem.o(.text)
    .text                                    0x0001035c   Section        0  fips_err.o(.text)
    .text                                    0x000103ae   Section        0  fips_ecdh_selftest.o(.text)
    __sta__dyninit                           0x000105ad   Thumb Code    44  fips_ecdh_selftest.o(.text)
    .text                                    0x000105d8   Section        0  fips_ecdsa_selftest.o(.text)
    __sta__dyninit                           0x000106b9   Thumb Code    36  fips_ecdsa_selftest.o(.text)
    .text                                    0x000106dc   Section        0  fips_hmac_selftest.o(.text)
    .text                                    0x0001080e   Section        0  fips_drbg_ctr.o(.text)
    inc_128                                  0x0001080f   Thumb Code    28  fips_drbg_ctr.o(.text)
    ctr_XOR                                  0x0001082b   Thumb Code    96  fips_drbg_ctr.o(.text)
    ctr_BCC_block                            0x0001088b   Thumb Code    34  fips_drbg_ctr.o(.text)
    ctr_BCC_blocks                           0x000108ad   Thumb Code    54  fips_drbg_ctr.o(.text)
    ctr_BCC_init                             0x000108e3   Thumb Code   136  fips_drbg_ctr.o(.text)
    ctr_BCC_update                           0x0001096b   Thumb Code   116  fips_drbg_ctr.o(.text)
    ctr_BCC_final                            0x000109df   Thumb Code    40  fips_drbg_ctr.o(.text)
    ctr_df                                   0x00010a07   Thumb Code   244  fips_drbg_ctr.o(.text)
    ctr_Update                               0x00010afb   Thumb Code   224  fips_drbg_ctr.o(.text)
    drbg_ctr_instantiate                     0x00010bdb   Thumb Code   112  fips_drbg_ctr.o(.text)
    drbg_ctr_reseed                          0x00010c4b   Thumb Code    28  fips_drbg_ctr.o(.text)
    drbg_ctr_generate                        0x00010c67   Thumb Code   246  fips_drbg_ctr.o(.text)
    drbg_ctr_uninstantiate                   0x00010d5d   Thumb Code    16  fips_drbg_ctr.o(.text)
    .text                                    0x00010e32   Section        0  fips_drbg_selftest.o(.text)
    test_entropy                             0x00010e33   Thumb Code    22  fips_drbg_selftest.o(.text)
    test_nonce                               0x00010e49   Thumb Code    22  fips_drbg_selftest.o(.text)
    fips_drbg_single_kat                     0x00010e5f   Thumb Code   606  fips_drbg_selftest.o(.text)
    do_drbg_init                             0x000110bd   Thumb Code   106  fips_drbg_selftest.o(.text)
    do_drbg_instantiate                      0x00011127   Thumb Code    40  fips_drbg_selftest.o(.text)
    fips_drbg_error_check                    0x0001114f   Thumb Code  1506  fips_drbg_selftest.o(.text)
    __sta__dyninit                           0x000118dd   Thumb Code  3306  fips_drbg_selftest.o(.text)
    .text                                    0x000125c6   Section        0  fips_rand_selftest.o(.text)
    do_x931_test                             0x000125c7   Thumb Code   176  fips_rand_selftest.o(.text)
    .text                                    0x000126fa   Section        0  fips_aes_selftest.o(.text)
    .text                                    0x00012c26   Section        0  fips_cmac_selftest.o(.text)
    .text                                    0x00012d64   Section        0  fips_des_selftest.o(.text)
    .text                                    0x00012dd4   Section        0  e_des3.o(.text)
    des_ede_ecb_cipher                       0x00012dd5   Thumb Code    74  e_des3.o(.text)
    des_ede_ofb_cipher                       0x00012e1f   Thumb Code   108  e_des3.o(.text)
    des_ede_cbc_cipher                       0x00012e8b   Thumb Code   108  e_des3.o(.text)
    des_ede_cfb64_cipher                     0x00012ef7   Thumb Code   116  e_des3.o(.text)
    des_ede3_cfb1_cipher                     0x00012f6b   Thumb Code   164  e_des3.o(.text)
    des_ede3_cfb8_cipher                     0x0001300f   Thumb Code   126  e_des3.o(.text)
    des_ede_init_key                         0x00013105   Thumb Code    44  e_des3.o(.text)
    des_ede3_init_key                        0x00013131   Thumb Code    46  e_des3.o(.text)
    des3_ctrl                                0x0001315f   Thumb Code    70  e_des3.o(.text)
    __sta__dyninit                           0x000131bd   Thumb Code   198  e_des3.o(.text)
    .text                                    0x00013282   Section        0  rsa_pss.o(.text)
    .text                                    0x00013672   Section        0  fips_rsa_lib.o(.text)
    .text                                    0x00013716   Section        0  set_key.o(.text)
    .text                                    0x0001398e   Section        0  des_enc.o(.text)
    .text                                    0x00016684   Section        0  ofb64ede.o(.text)
    .text                                    0x000167c6   Section        0  cfb64ede.o(.text)
    .text                                    0x00016d52   Section        0  ecb3_enc.o(.text)
    .text                                    0x00016dd4   Section        0  ofb128.o(.text)
    .text                                    0x00016ea2   Section        0  ccm128.o(.text)
    ctr64_inc                                0x00016fcf   Thumb Code    26  ccm128.o(.text)
    ctr64_add                                0x00017339   Thumb Code    48  ccm128.o(.text)
    .text                                    0x000175fc   Section        0  xts128.o(.text)
    .text                                    0x000178c2   Section        0  ctr128.o(.text)
    ctr128_inc                               0x000178c3   Thumb Code    22  ctr128.o(.text)
    ctr128_inc_aligned                       0x000178d9   Thumb Code    52  ctr128.o(.text)
    ctr96_inc                                0x000179ed   Thumb Code    22  ctr128.o(.text)
    .text                                    0x00017ae4   Section        0  cfb128.o(.text)
    cfbr_encrypt_block                       0x00017c83   Thumb Code   234  cfb128.o(.text)
    .text                                    0x00017e46   Section        0  cbc128.o(.text)
    .text                                    0x0001803a   Section       38  llushr.o(.text)
    .text                                    0x00018060   Section        0  _printf_pad.o(.text)
    .text                                    0x000180b2   Section        0  _printf_str.o(.text)
    i._is_digit                              0x00018104   Section        0  __printf_wp.o(i._is_digit)
    .ARM.Collect$$_printf_percent$$00000000  0x00018112   Section        0  _printf_percent.o(.ARM.Collect$$_printf_percent$$00000000)
    .ARM.Collect$$_printf_percent$$00000001  0x00018112   Section        6  _printf_n.o(.ARM.Collect$$_printf_percent$$00000001)
    .ARM.Collect$$_printf_percent$$00000002  0x00018118   Section        6  _printf_p.o(.ARM.Collect$$_printf_percent$$00000002)
    .ARM.Collect$$_printf_percent$$00000003  0x0001811e   Section        6  _printf_f.o(.ARM.Collect$$_printf_percent$$00000003)
    .ARM.Collect$$_printf_percent$$00000004  0x00018124   Section        6  _printf_e.o(.ARM.Collect$$_printf_percent$$00000004)
    .ARM.Collect$$_printf_percent$$00000005  0x0001812a   Section        6  _printf_g.o(.ARM.Collect$$_printf_percent$$00000005)
    .ARM.Collect$$_printf_percent$$00000006  0x00018130   Section        6  _printf_a.o(.ARM.Collect$$_printf_percent$$00000006)
    .ARM.Collect$$_printf_percent$$00000007  0x00018136   Section       10  _printf_ll.o(.ARM.Collect$$_printf_percent$$00000007)
    .ARM.Collect$$_printf_percent$$00000008  0x00018140   Section        6  _printf_i.o(.ARM.Collect$$_printf_percent$$00000008)
    .ARM.Collect$$_printf_percent$$00000009  0x00018146   Section        6  _printf_d.o(.ARM.Collect$$_printf_percent$$00000009)
    .ARM.Collect$$_printf_percent$$0000000A  0x0001814c   Section        6  _printf_u.o(.ARM.Collect$$_printf_percent$$0000000A)
    .ARM.Collect$$_printf_percent$$0000000B  0x00018152   Section        6  _printf_o.o(.ARM.Collect$$_printf_percent$$0000000B)
    .ARM.Collect$$_printf_percent$$0000000C  0x00018158   Section        6  _printf_x.o(.ARM.Collect$$_printf_percent$$0000000C)
    .ARM.Collect$$_printf_percent$$0000000D  0x0001815e   Section        6  _printf_lli.o(.ARM.Collect$$_printf_percent$$0000000D)
    .ARM.Collect$$_printf_percent$$0000000E  0x00018164   Section        6  _printf_lld.o(.ARM.Collect$$_printf_percent$$0000000E)
    .ARM.Collect$$_printf_percent$$0000000F  0x0001816a   Section        6  _printf_llu.o(.ARM.Collect$$_printf_percent$$0000000F)
    .ARM.Collect$$_printf_percent$$00000010  0x00018170   Section        6  _printf_llo.o(.ARM.Collect$$_printf_percent$$00000010)
    .ARM.Collect$$_printf_percent$$00000011  0x00018176   Section        6  _printf_llx.o(.ARM.Collect$$_printf_percent$$00000011)
    .ARM.Collect$$_printf_percent$$00000012  0x0001817c   Section       10  _printf_l.o(.ARM.Collect$$_printf_percent$$00000012)
    .ARM.Collect$$_printf_percent$$00000013  0x00018186   Section        6  _printf_c.o(.ARM.Collect$$_printf_percent$$00000013)
    .ARM.Collect$$_printf_percent$$00000014  0x0001818c   Section        6  _printf_s.o(.ARM.Collect$$_printf_percent$$00000014)
    .ARM.Collect$$_printf_percent$$00000015  0x00018192   Section        6  _printf_lc.o(.ARM.Collect$$_printf_percent$$00000015)
    .ARM.Collect$$_printf_percent$$00000016  0x00018198   Section        6  _printf_ls.o(.ARM.Collect$$_printf_percent$$00000016)
    .ARM.Collect$$_printf_percent$$00000017  0x0001819e   Section        4  _printf_percent_end.o(.ARM.Collect$$_printf_percent$$00000017)
    .text                                    0x000181a2   Section        0  qsortnoex.o(.text)
    _partition_sort                          0x000181a3   Thumb Code   478  qsortnoex.o(.text)
    .text                                    0x00018404   Section        0  strchr.o(.text)
    .text                                    0x00018418   Section        0  strstr.o(.text)
    .text                                    0x0001843c   Section        0  memcmp.o(.text)
    .text                                    0x00018494   Section        0  strcpy.o(.text)
    .text                                    0x000184da   Section        0  strlen.o(.text)
    .text                                    0x00018514   Section       16  aeabi_memset.o(.text)
    .text                                    0x00018524   Section       68  rt_memclr.o(.text)
    .text                                    0x00018568   Section       78  rt_memclr_w.o(.text)
    .text                                    0x000185b6   Section       22  uread4.o(.text)
    .text                                    0x000185cc   Section       22  uwrite4.o(.text)
    x$fpl$drsb                               0x000185e2   Section       22  daddsub_clz.o(x$fpl$drsb)
    x$fpl$dflt                               0x000185f8   Section       46  dflt_clz.o(x$fpl$dflt)
    x$fpl$drleqf                             0x00018626   Section      108  drleqf.o(x$fpl$drleqf)
    .text                                    0x00018692   Section        0  _printf_truncate.o(.text)
    .text                                    0x000186b6   Section        0  _printf_intcommon.o(.text)
    .text                                    0x0001876e   Section        0  _printf_charcount.o(.text)
    .text                                    0x00018798   Section        0  _sputc.o(.text)
    .text                                    0x000187a2   Section        0  _snputc.o(.text)
    .text                                    0x000187b2   Section        0  _printf_char.o(.text)
    .ARM.Collect$$libinit$$00000008          0x000187de   Section        0  libinit2.o(.ARM.Collect$$libinit$$00000008)
    .ARM.Collect$$libinit$$00000011          0x000187de   Section        0  libinit2.o(.ARM.Collect$$libinit$$00000011)
    .ARM.Collect$$libinit$$00000015          0x000187de   Section        0  libinit2.o(.ARM.Collect$$libinit$$00000015)
    .ARM.Collect$$libinit$$00000023          0x000187de   Section        0  libinit2.o(.ARM.Collect$$libinit$$00000023)
    .ARM.Collect$$libinit$$00000030          0x000187de   Section        0  libinit2.o(.ARM.Collect$$libinit$$00000030)
    x$fpl$dcmpinf                            0x000187de   Section       24  dcmpi.o(x$fpl$dcmpinf)
    x$fpl$dnaninf                            0x000187f6   Section      156  dnaninf.o(x$fpl$dnaninf)
    x$fpl$dretinf                            0x00018892   Section       12  dretinf.o(x$fpl$dretinf)
    x$fpl$printf1                            0x0001889e   Section        4  printf1.o(x$fpl$printf1)
    .text                                    0x000188a2   Section        0  _printf_fp_dec.o(.text)
    x$fpl$usenofp                            0x000188a2   Section        0  usenofp.o(x$fpl$usenofp)
    _fp_digits                               0x000188a5   Thumb Code   426  _printf_fp_dec.o(.text)
    .text                                    0x00018cba   Section        0  _printf_wchar.o(.text)
    .text                                    0x00018ce6   Section        0  ferror.o(.text)
    i.fputc                                  0x00018cee   Section        0  fputc.o(i.fputc)
    .text                                    0x00018d08   Section        0  _wcrtomb.o(.text)
    .text                                    0x00018d48   Section        0  sys_io.o(.text)
    .text                                    0x00018dae   Section        0  h1_free.o(.text)
    CL$$btod_d2e                             0x00018dfc   Section       62  btod.o(CL$$btod_d2e)
    CL$$btod_d2e_norm_op1                    0x00018e3a   Section       96  btod.o(CL$$btod_d2e_norm_op1)
    CL$$btod_d2e_denorm_low                  0x00018e9a   Section       70  btod.o(CL$$btod_d2e_denorm_low)
    CL$$btod_emul                            0x00018ee0   Section       40  btod.o(CL$$btod_emul)
    CL$$btod_ediv                            0x00018f08   Section       40  btod.o(CL$$btod_ediv)
    CL$$btod_e2e                             0x00018f30   Section      198  btod.o(CL$$btod_e2e)
    CL$$btod_mult_common                     0x00018ff6   Section      580  btod.o(CL$$btod_mult_common)
    CL$$btod_div_common                      0x0001923a   Section      824  btod.o(CL$$btod_div_common)
    .text                                    0x00019572   Section        0  flsbuf.o(.text)
    .text                                    0x00019750   Section        0  setvbuf.o(.text)
    .text                                    0x00019796   Section        0  fclose.o(.text)
    .text                                    0x000197e2   Section        0  defsig_rtred_outer.o(.text)
    .ARM.Collect$$libshutdown$$00000003      0x000197f0   Section        0  libshutdown2.o(.ARM.Collect$$libshutdown$$00000003)
    i.__ARM_fpclassify                       0x000197f0   Section        0  fpclassify.o(i.__ARM_fpclassify)
    .text                                    0x00019818   Section        2  use_no_semi.o(.text)
    .text                                    0x0001981a   Section        0  hguard.o(.text)
    .text                                    0x0001981a   Section        0  indicate_semi.o(.text)
    .text                                    0x0001981e   Section        0  init_alloc.o(.text)
    .text                                    0x000198a6   Section        0  h1_alloc.o(.text)
    .text                                    0x00019904   Section        0  defsig_exit.o(.text)
    .text                                    0x0001990e   Section        0  defsig_rtmem_outer.o(.text)
    .text                                    0x0001991c   Section        0  h1_init.o(.text)
    .text                                    0x0001992a   Section        0  h1_extend.o(.text)
    .text                                    0x0001995c   Section        0  ftell.o(.text)
    .text                                    0x000199a2   Section        0  defsig_general.o(.text)
    .text                                    0x000199d4   Section        0  sys_wrch.o(.text)
    .text                                    0x000199e4   Section        0  tz_main.o(.text)
    .text                                    0x00019b10   Section        0  tz_key_wrapping.o(.text)
    .text                                    0x00019d80   Section        0  tz_ta_sstorage_service.o(.text)
    SS_UItoA                                 0x00019d81   Thumb Code    16  tz_ta_sstorage_service.o(.text)
    SS_AtoUI                                 0x00019d91   Thumb Code    24  tz_ta_sstorage_service.o(.text)
    SS_FormAAD                               0x00019da9   Thumb Code    40  tz_ta_sstorage_service.o(.text)
    process_serialized_data                  0x00019dd1   Thumb Code  5570  tz_ta_sstorage_service.o(.text)
    ss_check_flags                           0x0001b393   Thumb Code    28  tz_ta_sstorage_service.o(.text)
    cmp_hash                                 0x0001b3af   Thumb Code    30  tz_ta_sstorage_service.o(.text)
    ss_parse_and_check_paths                 0x0001b3cd   Thumb Code   482  tz_ta_sstorage_service.o(.text)
    ss_check_if_lsm                          0x0001b5af   Thumb Code    38  tz_ta_sstorage_service.o(.text)
    ss_set_state_and_cache_password_and_DKEK 0x0001b5d5   Thumb Code   112  tz_ta_sstorage_service.o(.text)
    ss_sd_get_password_and_DKEK              0x0001b645   Thumb Code    72  tz_ta_sstorage_service.o(.text)
    ss_check_signature_RSA                   0x0001b68d   Thumb Code   842  tz_ta_sstorage_service.o(.text)
    ss_check_signature_HMAC                  0x0001b9d7   Thumb Code   320  tz_ta_sstorage_service.o(.text)
    ss_check_signature                       0x0001bb17   Thumb Code    44  tz_ta_sstorage_service.o(.text)
    ss_check_signature_config                0x0001bb43   Thumb Code    42  tz_ta_sstorage_service.o(.text)
    ss_check_if_dexopt                       0x0001bb6d   Thumb Code    74  tz_ta_sstorage_service.o(.text)
    tz_ta_ss_genIV                           0x0001bbb7   Thumb Code    18  tz_ta_sstorage_service.o(.text)
    tz_ta_set_provisioned_key                0x0001bbc9   Thumb Code   692  tz_ta_sstorage_service.o(.text)
    tz_ta_ss_decrypt                         0x0001be7d   Thumb Code   852  tz_ta_sstorage_service.o(.text)
    tz_ta_ss_encrypt                         0x0001c1d1   Thumb Code  1554  tz_ta_sstorage_service.o(.text)
    tz_ta_dummy                              0x0001c7e3   Thumb Code    48  tz_ta_sstorage_service.o(.text)
    tz_ta_ss_gen_asym_key_pair               0x0001c813   Thumb Code   514  tz_ta_sstorage_service.o(.text)
    tz_ta_ss_set_state                       0x0001ca15   Thumb Code   606  tz_ta_sstorage_service.o(.text)
    tz_ta_ss_get_state                       0x0001cc73   Thumb Code    98  tz_ta_sstorage_service.o(.text)
    tz_ta_ss_keys_re_encrypt                 0x0001ccd5   Thumb Code   668  tz_ta_sstorage_service.o(.text)
    tz_ta_ss_dkek_re_encrypt                 0x0001cf71   Thumb Code   946  tz_ta_sstorage_service.o(.text)
    tz_ta_validate_dkek                      0x0001d323   Thumb Code   258  tz_ta_sstorage_service.o(.text)
    tz_ta_ss_get_hash_and_sign               0x0001d425   Thumb Code  1486  tz_ta_sstorage_service.o(.text)
    ss_gen_cryptolog_key                     0x0001d9f3   Thumb Code   426  tz_ta_sstorage_service.o(.text)
    tz_ta_ss_load_config                     0x0001db9d   Thumb Code  1312  tz_ta_sstorage_service.o(.text)
    tz_ta_ss_gen_key_to_ko                   0x0001e0bd   Thumb Code   530  tz_ta_sstorage_service.o(.text)
    tz_ta_ss_self_test                       0x0001e2cf   Thumb Code   294  tz_ta_sstorage_service.o(.text)
    ss_deserialize_AC_data                   0x0001e3f5   Thumb Code   774  tz_ta_sstorage_service.o(.text)
    ss_check_all                             0x0001e6fb   Thumb Code   470  tz_ta_sstorage_service.o(.text)
    .text                                    0x0001ea6c   Section        0  ss_key_encryption.o(.text)
    .text                                    0x0001ecac   Section        0  ss_discrete_hannover_transform.o(.text)
    lonNncaEieoutdl                          0x0001ecad   Thumb Code     4  ss_discrete_hannover_transform.o(.text)
    jorrDe                                   0x0001ecb1   Thumb Code   716  ss_discrete_hannover_transform.o(.text)
    .text                                    0x0001f10c   Section        0  ss_key_management_skmm_key_generation.o(.text)
    printKeyData                             0x0001f10d   Thumb Code   220  ss_key_management_skmm_key_generation.o(.text)
    ss_decrypt_app_key_v2_skmm               0x0001f1eb   Thumb Code   616  ss_key_management_skmm_key_generation.o(.text)
    ss_gen_app_key_v2_skmm                   0x0001f453   Thumb Code   802  ss_key_management_skmm_key_generation.o(.text)
    ss_gen_app_key_v2_base_on_DKEK           0x0001f775   Thumb Code   230  ss_key_management_skmm_key_generation.o(.text)
    ss_decrypt_app_key_v2_base_on_DKEK       0x0001f85b   Thumb Code    50  ss_key_management_skmm_key_generation.o(.text)
    .text                                    0x0001f968   Section        0  ss_key_management_lsm.o(.text)
    printKeyData                             0x0001f969   Thumb Code     2  ss_key_management_lsm.o(.text)
    .text                                    0x00020a18   Section        0  ss_key_management_helper_functions.o(.text)
    .text                                    0x00020b60   Section        0  tz_ta_sstorage_secdrv_interface.o(.text)
    printKeyData                             0x00021171   Thumb Code   236  tz_ta_sstorage_secdrv_interface.o(.text)
    .text                                    0x000216c4   Section        0  ss_memory_internal.o(.text)
    print_nwd_addr_t_tl                      0x000216c5   Thumb Code    62  ss_memory_internal.o(.text)
    print_nwd_addr_t                         0x00021703   Thumb Code   102  ss_memory_internal.o(.text)
    print_swd_addr_t                         0x00021769   Thumb Code    54  ss_memory_internal.o(.text)
    .text                                    0x00021ea4   Section        0  ss_SKEIN.o(.text)
    .text                                    0x00021ee0   Section        0  task.o(.text)
    print_nwd_addr_t_tl                      0x00021ee1   Thumb Code    62  task.o(.text)
    print_nwd_addr_t                         0x00021f1f   Thumb Code   102  task.o(.text)
    ss_blob                                  0x00021f85   Thumb Code   558  task.o(.text)
    str_length                               0x000221b3   Thumb Code    30  task.o(.text)
    get_number_id                            0x000221d1   Thumb Code    92  task.o(.text)
    get_id_by_num                            0x0002222d   Thumb Code   164  task.o(.text)
    get_skips_by_page_index                  0x000222d1   Thumb Code   268  task.o(.text)
    get_task_arch                            0x000223dd   Thumb Code   582  task.o(.text)
    full_hash_area                           0x00022623   Thumb Code  4260  task.o(.text)
    random_hash_area                         0x000236c7   Thumb Code    72  task.o(.text)
    find_name                                0x0002370f   Thumb Code   124  task.o(.text)
    compare_for_sort                         0x0002378b   Thumb Code     8  task.o(.text)
    get_seg_info                             0x00023793   Thumb Code  2442  task.o(.text)
    list_vmas                                0x0002411d   Thumb Code  1890  task.o(.text)
    find_and_parse_task                      0x0002597f   Thumb Code  4384  task.o(.text)
    pid_get_direction                        0x00026a9f   Thumb Code   684  task.o(.text)
    translation_memory                       0x00027a1f   Thumb Code  2152  task.o(.text)
    .text                                    0x00028678   Section        0  ss_parse_ustack.o(.text)
    print_nwd_addr_t                         0x00028679   Thumb Code   102  ss_parse_ustack.o(.text)
    ustack_add_list                          0x000286df   Thumb Code   138  ss_parse_ustack.o(.text)
    ustack_print_list                        0x00028769   Thumb Code    48  ss_parse_ustack.o(.text)
    check_cur_vma                            0x00028799   Thumb Code   356  ss_parse_ustack.o(.text)
    check_ARM_opcode                         0x000288fd   Thumb Code   744  ss_parse_ustack.o(.text)
    .text                                    0x000291bc   Section        0  ss_config.o(.text)
    set_config_64                            0x000291bd   Thumb Code  3198  ss_config.o(.text)
    .text                                    0x0002aa8c   Section        0  gaf.o(.text)
    sec_gaf_check_sum_calc                   0x0002ab65   Thumb Code    60  gaf.o(.text)
    __sta__dyninit                           0x0002ac95   Thumb Code    24  gaf.o(.text)
    .text                                    0x0002ad30   Section        0  dmp.o(.text)
    print_swd_addr_t                         0x0002ad31   Thumb Code    54  dmp.o(.text)
    .text                                    0x0002b248   Section        0  cache_table.o(.text)
    cache_add_entry_notask                   0x0002b287   Thumb Code   330  cache_table.o(.text)
    .text                                    0x0002b580   Section        0  odex.o(.text)
    .text                                    0x0002b85c   Section        0  tz_prng.o(.text)
    Hash_df                                  0x0002b85d   Thumb Code   264  tz_prng.o(.text)
    init_prng                                0x0002b965   Thumb Code   158  tz_prng.o(.text)
    reseed_prng                              0x0002ba03   Thumb Code   188  tz_prng.o(.text)
    sum_mod_seed                             0x0002babf   Thumb Code    60  tz_prng.o(.text)
    Hash_gen                                 0x0002bafb   Thumb Code   144  tz_prng.o(.text)
    algorithm_prng                           0x0002bb8b   Thumb Code   232  tz_prng.o(.text)
    .text                                    0x0002bde4   Section        0  selftest.o(.text)
    check_aes_gcm                            0x0002bde5   Thumb Code  1094  selftest.o(.text)
    check_aes_gcm_all                        0x0002c22b   Thumb Code    76  selftest.o(.text)
    check_hashes                             0x0002c277   Thumb Code   726  selftest.o(.text)
    .text                                    0x0002c618   Section        0  cryptolog.o(.text)
    loghex_in_string                         0x0002c619   Thumb Code    74  cryptolog.o(.text)
    log_encrypt_ctr                          0x0002c663   Thumb Code   104  cryptolog.o(.text)
    print_crypto_log                         0x0002c6cb   Thumb Code   236  cryptolog.o(.text)
    prepare_and_print                        0x0002c7b7   Thumb Code   118  cryptolog.o(.text)
    .text                                    0x0002ca20   Section        0  ss_mapped_regions_registry.o(.text)
    print_nwd_addr_t                         0x0002ca21   Thumb Code   102  ss_mapped_regions_registry.o(.text)
    print_swd_addr_t                         0x0002ca87   Thumb Code    54  ss_mapped_regions_registry.o(.text)
    .text                                    0x0002d208   Section        0  asn1.o(.text)
    rotate_bits                              0x0002d3f1   Thumb Code    30  asn1.o(.text)
    .text                                    0x0002d464   Section        0  ECDH.o(.text)
    .text                                    0x0002d7c0   Section        0  AES.o(.text)
    .text                                    0x0002d8a8   Section        0  ss_ta_asymmetric_crypto_api.o(.text)
    ss_is_Crypto_Crore_support               0x0002d8a9   Thumb Code     4  ss_ta_asymmetric_crypto_api.o(.text)
    ss_decrypt_priv_key                      0x0002d8ad   Thumb Code   176  ss_ta_asymmetric_crypto_api.o(.text)
    ss_encrypt_priv_key                      0x0002de81   Thumb Code   184  ss_ta_asymmetric_crypto_api.o(.text)
    .text                                    0x0002e7b0   Section        0  x_long.o(.text)
    long_new                                 0x0002e7bd   Thumb Code     8  x_long.o(.text)
    long_free                                0x0002e7c5   Thumb Code     6  x_long.o(.text)
    long_i2c                                 0x0002e7cb   Thumb Code   130  x_long.o(.text)
    long_c2i                                 0x0002e84d   Thumb Code   164  x_long.o(.text)
    __sta__dyninit                           0x0002e8f1   Thumb Code    72  x_long.o(.text)
    .text                                    0x0002e940   Section        0  dsa_asn1.o(.text)
    CRYPTO_clear_free                        0x0002e941   Thumb Code    28  dsa_asn1.o(.text)
    sig_cb                                   0x0002e95d   Thumb Code    60  dsa_asn1.o(.text)
    dsa_cb                                   0x0002e9ef   Thumb Code    44  dsa_asn1.o(.text)
    __sta__dyninit                           0x0002eb83   Thumb Code   244  dsa_asn1.o(.text)
    .text                                    0x0002ecb4   Section        0  dsa_ossl.o(.text)
    dsa_sign_setup                           0x0002f1b7   Thumb Code   440  dsa_ossl.o(.text)
    dsa_do_sign                              0x0002f36f   Thumb Code   368  dsa_ossl.o(.text)
    dsa_sign_setup_no_digest                 0x0002f4df   Thumb Code    28  dsa_ossl.o(.text)
    dsa_do_verify                            0x0002f4fb   Thumb Code   506  dsa_ossl.o(.text)
    dsa_init                                 0x0002f6f5   Thumb Code    12  dsa_ossl.o(.text)
    dsa_finish                               0x0002f701   Thumb Code    12  dsa_ossl.o(.text)
    __sta__dyninit                           0x0002f70d   Thumb Code    76  dsa_ossl.o(.text)
    .text                                    0x0002f76c   Section        0  vmem_64.o(.text)
    .text                                    0x0002ff0c   Section        0  kernel_stack_64.o(.text)
    .text                                    0x00030224   Section        0  tzapp_lib_main.o(.text)
    qsee_app_initial_invoke                  0x00030433   Thumb Code   256  tzapp_lib_main.o(.text)
    app_cmd_invoke                           0x000307cb   Thumb Code   148  tzapp_lib_main.o(.text)
    __sta__dyninit                           0x0003085f   Thumb Code    30  tzapp_lib_main.o(.text)
    .text                                    0x00030880   Section        0  cryptolib_init.o(.text)
    .text                                    0x000308a0   Section        0  mem_clr.o(.text)
    OPENSSL_HexDump                          0x000308a1   Thumb Code    84  mem_clr.o(.text)
    .text                                    0x0003096c   Section        0  tasn_dec.o(.text)
    asn1_check_eoc                           0x00030985   Thumb Code    30  tasn_dec.o(.text)
    asn1_check_tlen                          0x000309a3   Thumb Code   322  tasn_dec.o(.text)
    asn1_template_noexp_d2i                  0x00030ae5   Thumb Code   578  tasn_dec.o(.text)
    asn1_template_ex_d2i                     0x00030d27   Thumb Code   306  tasn_dec.o(.text)
    collect_data                             0x00031057   Thumb Code    64  tasn_dec.o(.text)
    asn1_collect                             0x00031097   Thumb Code   302  tasn_dec.o(.text)
    asn1_find_end                            0x000311c5   Thumb Code   202  tasn_dec.o(.text)
    asn1_d2i_ex_primitive                    0x0003128f   Thumb Code   560  tasn_dec.o(.text)
    .text                                    0x00031aec   Section        0  tasn_typ.o(.text)
    __sta__dyninit                           0x000321ff   Thumb Code   252  tasn_typ.o(.text)
    .text                                    0x000324cc   Section        0  x_bignum.o(.text)
    bn_new                                   0x000324e5   Thumb Code    20  x_bignum.o(.text)
    bn_free                                  0x000324f9   Thumb Code    34  x_bignum.o(.text)
    bn_i2c                                   0x0003251b   Thumb Code    70  x_bignum.o(.text)
    bn_c2i                                   0x00032561   Thumb Code    56  x_bignum.o(.text)
    __sta__dyninit                           0x00032599   Thumb Code    80  x_bignum.o(.text)
    .text                                    0x000325f0   Section        0  asn1_lib.o(.text)
    _asn1_check_infinite_end                 0x000325f1   Thumb Code    34  asn1_lib.o(.text)
    asn1_get_length                          0x00032617   Thumb Code   130  asn1_lib.o(.text)
    asn1_put_length                          0x00032779   Thumb Code    74  asn1_lib.o(.text)
    _asn1_Finish                             0x00032893   Thumb Code    68  asn1_lib.o(.text)
    .text                                    0x00032b50   Section        0  mem.o(.text)
    default_malloc_ex                        0x00032b51   Thumb Code    14  mem.o(.text)
    default_realloc_ex                       0x00032b5f   Thumb Code    14  mem.o(.text)
    default_malloc_locked_ex                 0x00032b6d   Thumb Code    14  mem.o(.text)
    __sta__dyninit                           0x000330e5   Thumb Code   118  mem.o(.text)
    .text                                    0x00033160   Section        0  rsa_sign.o(.text)
    .text                                    0x000335fc   Section        0  o_fips.o(.text)
    .text                                    0x0003365c   Section        0  bn_exp.o(.text)
    MOD_EXP_CTIME_COPY_FROM_PREBUF           0x0003395b   Thumb Code   108  bn_exp.o(.text)
    MOD_EXP_CTIME_COPY_TO_PREBUF             0x000339c7   Thumb Code    50  bn_exp.o(.text)
    .text                                    0x00034420   Section        0  bn_mod.o(.text)
    .text                                    0x000346cc   Section        0  bn_rand.o(.text)
    bnrand                                   0x000346cd   Thumb Code   336  bn_rand.o(.text)
    bn_rand_range                            0x00034853   Thumb Code   290  bn_rand.o(.text)
    .text                                    0x00034988   Section        0  bn_lib.o(.text)
    bn_expand_internal                       0x00034b7f   Thumb Code   178  bn_lib.o(.text)
    __sta__dyninit                           0x000351e3   Thumb Code    24  bn_lib.o(.text)
    .text                                    0x000351fc   Section        0  ec_key.o(.text)
    fips_check_ec                            0x000353e7   Thumb Code   126  ec_key.o(.text)
    .text                                    0x00035964   Section        0  ec_lib.o(.text)
    .text                                    0x00036710   Section        0  m_sha1.o(.text)
    init                                     0x00036711   Thumb Code     6  m_sha1.o(.text)
    update                                   0x00036717   Thumb Code     6  m_sha1.o(.text)
    final                                    0x0003671d   Thumb Code    10  m_sha1.o(.text)
    init224                                  0x00036733   Thumb Code     6  m_sha1.o(.text)
    init256                                  0x00036739   Thumb Code     6  m_sha1.o(.text)
    update256                                0x0003673f   Thumb Code     6  m_sha1.o(.text)
    final256                                 0x00036745   Thumb Code    10  m_sha1.o(.text)
    init384                                  0x00036767   Thumb Code     6  m_sha1.o(.text)
    init512                                  0x0003676d   Thumb Code     6  m_sha1.o(.text)
    update512                                0x00036773   Thumb Code     6  m_sha1.o(.text)
    final512                                 0x00036779   Thumb Code    10  m_sha1.o(.text)
    __sta__dyninit                           0x0003679b   Thumb Code   216  m_sha1.o(.text)
    .text                                    0x00036874   Section        0  hmac.o(.text)
    .text                                    0x00036b8c   Section        0  gcm128.o(.text)
    gcm_init_4bit                            0x00036b8d   Thumb Code   982  gcm128.o(.text)
    .text                                    0x00037d28   Section        0  rsa_gen.o(.text)
    rsa_builtin_keygen                       0x00037f13   Thumb Code   972  rsa_gen.o(.text)
    .text                                    0x000382f0   Section        0  sha512.o(.text)
    .text                                    0x00038774   Section        0  sha256.o(.text)
    .text                                    0x00038acc   Section        0  fips_md.o(.text)
    bad_init                                 0x00038aff   Thumb Code    24  fips_md.o(.text)
    bad_update                               0x00038b17   Thumb Code    24  fips_md.o(.text)
    bad_final                                0x00038b2f   Thumb Code    24  fips_md.o(.text)
    __sta__dyninit                           0x00038e73   Thumb Code   294  fips_md.o(.text)
    .text                                    0x00038f98   Section     4728  aes-armv4-cc.o(.text)
    _armv4_fips_aes_encrypt                  0x00039538   ARM Code     472  aes-armv4-cc.o(.text)
    _armv4_fips_aes_decrypt                  0x0003a024   ARM Code     492  aes-armv4-cc.o(.text)
    .text                                    0x0003a210   Section        0  lhash.o(.text)
    getrn                                    0x0003a325   Thumb Code   106  lhash.o(.text)
    expand                                   0x0003a38f   Thumb Code   184  lhash.o(.text)
    contract                                 0x0003a4bd   Thumb Code   138  lhash.o(.text)
    doall_util_fn                            0x0003a5c1   Thumb Code    68  lhash.o(.text)
    .text                                    0x0003a630   Section        0  x_sig.o(.text)
    __sta__dyninit                           0x0003a687   Thumb Code    54  x_sig.o(.text)
    .text                                    0x0003a6d8   Section        0  obj_dat.o(.text)
    sn_cmp                                   0x0003a6d9   Thumb Code    28  obj_dat.o(.text)
    sn_cmp_BSEARCH_CMP_FN                    0x0003a6f5   Thumb Code     2  obj_dat.o(.text)
    OBJ_bsearch_sn                           0x0003a79b   Thumb Code    22  obj_dat.o(.text)
    ln_cmp                                   0x0003a7b1   Thumb Code    30  obj_dat.o(.text)
    ln_cmp_BSEARCH_CMP_FN                    0x0003a7cf   Thumb Code     2  obj_dat.o(.text)
    OBJ_bsearch_ln                           0x0003a7d1   Thumb Code    22  obj_dat.o(.text)
    added_obj_hash                           0x0003a7e7   Thumb Code   126  obj_dat.o(.text)
    added_obj_LHASH_HASH                     0x0003a865   Thumb Code     2  obj_dat.o(.text)
    added_obj_cmp                            0x0003a867   Thumb Code   104  obj_dat.o(.text)
    added_obj_LHASH_COMP                     0x0003a8cf   Thumb Code     2  obj_dat.o(.text)
    init_added                               0x0003a8d1   Thumb Code    56  obj_dat.o(.text)
    cleanup1_doall                           0x0003a909   Thumb Code    18  obj_dat.o(.text)
    cleanup2_doall                           0x0003a91b   Thumb Code    10  obj_dat.o(.text)
    cleanup3_doall                           0x0003a925   Thumb Code    30  obj_dat.o(.text)
    cleanup1_LHASH_DOALL                     0x0003a943   Thumb Code     2  obj_dat.o(.text)
    cleanup2_LHASH_DOALL                     0x0003a945   Thumb Code     2  obj_dat.o(.text)
    cleanup3_LHASH_DOALL                     0x0003a947   Thumb Code     2  obj_dat.o(.text)
    obj_cmp                                  0x0003ac67   Thumb Code    42  obj_dat.o(.text)
    obj_cmp_BSEARCH_CMP_FN                   0x0003ac91   Thumb Code     2  obj_dat.o(.text)
    OBJ_bsearch_obj                          0x0003ac93   Thumb Code    22  obj_dat.o(.text)
    __sta__dyninit                           0x0003adf7   Thumb Code 43922  obj_dat.o(.text)
    .text                                    0x00045c5c   Section        0  b_print.o(.text)
    doapr_outch                              0x00045c5d   Thumb Code   162  b_print.o(.text)
    fmtint                                   0x00045cff   Thumb Code   448  b_print.o(.text)
    fmtstr                                   0x00045ebf   Thumb Code   150  b_print.o(.text)
    pow_10                                   0x00045f55   Thumb Code    38  b_print.o(.text)
    roundv                                   0x00045f7b   Thumb Code    58  b_print.o(.text)
    abs_val                                  0x00045fb5   Thumb Code    42  b_print.o(.text)
    fmtfp                                    0x00045fdf   Thumb Code   698  b_print.o(.text)
    _dopr                                    0x00046299   Thumb Code  1182  b_print.o(.text)
    .text                                    0x00046784   Section        0  rand_lib.o(.text)
    drbg_get_entropy                         0x000467bf   Thumb Code    86  rand_lib.o(.text)
    drbg_free_entropy                        0x00046815   Thumb Code    50  rand_lib.o(.text)
    drbg_get_adin                            0x00046847   Thumb Code    44  rand_lib.o(.text)
    drbg_rand_add                            0x00046873   Thumb Code    26  rand_lib.o(.text)
    drbg_rand_seed                           0x0004688d   Thumb Code    20  rand_lib.o(.text)
    .text                                    0x000469b0   Section        0  o_init.o(.text)
    .text                                    0x00046a28   Section        0  ec_mult.o(.text)
    ec_pre_comp_new                          0x00046a29   Thumb Code    72  ec_mult.o(.text)
    ec_pre_comp_dup                          0x00046a71   Thumb Code     8  ec_mult.o(.text)
    ec_pre_comp_free                         0x00046a79   Thumb Code    58  ec_mult.o(.text)
    ec_pre_comp_clear_free                   0x00046ab3   Thumb Code   124  ec_mult.o(.text)
    compute_wNAF                             0x00046b2f   Thumb Code   464  ec_mult.o(.text)
    .text                                    0x00047798   Section        0  ec_curve.o(.text)
    ec_group_new_from_data                   0x00047799   Thumb Code   582  ec_curve.o(.text)
    __sta__dyninit                           0x00047ae7   Thumb Code   346  ec_curve.o(.text)
    .text                                    0x00047f34   Section        0  rsa_eay.o(.text)
    RSA_eay_public_encrypt                   0x00047f41   Thumb Code   614  rsa_eay.o(.text)
    rsa_get_blinding                         0x000481a7   Thumb Code    92  rsa_eay.o(.text)
    rsa_blinding_convert                     0x00048203   Thumb Code    24  rsa_eay.o(.text)
    rsa_blinding_invert                      0x0004821b   Thumb Code    12  rsa_eay.o(.text)
    RSA_eay_private_encrypt                  0x00048227   Thumb Code   746  rsa_eay.o(.text)
    RSA_eay_private_decrypt                  0x00048511   Thumb Code   750  rsa_eay.o(.text)
    RSA_eay_public_decrypt                   0x000487ff   Thumb Code   646  rsa_eay.o(.text)
    RSA_eay_mod_exp                          0x00048a85   Thumb Code   890  rsa_eay.o(.text)
    RSA_eay_init                             0x00048dff   Thumb Code    42  rsa_eay.o(.text)
    RSA_eay_finish                           0x00048e29   Thumb Code    32  rsa_eay.o(.text)
    __sta__dyninit                           0x00048e49   Thumb Code   112  rsa_eay.o(.text)
    .text                                    0x00048ed0   Section        0  fips_drbg_lib.o(.text)
    fips_get_entropy                         0x0004902f   Thumb Code   180  fips_drbg_lib.o(.text)
    fips_cleanup_entropy                     0x000490e3   Thumb Code    26  fips_drbg_lib.o(.text)
    drbg_reseed                              0x00049217   Thumb Code   228  fips_drbg_lib.o(.text)
    fips_drbg_check                          0x000492ff   Thumb Code    56  fips_drbg_lib.o(.text)
    .text                                    0x00049590   Section        0  fips_rand.o(.text)
    fips_rand_prng_reset                     0x0004959f   Thumb Code    92  fips_rand.o(.text)
    fips_set_prng_key                        0x000495fb   Thumb Code    96  fips_rand.o(.text)
    fips_set_prng_seed                       0x0004965b   Thumb Code   216  fips_rand.o(.text)
    fips_set_test_mode                       0x00049733   Thumb Code    34  fips_rand.o(.text)
    fips_rand                                0x00049797   Thumb Code   362  fips_rand.o(.text)
    fips_do_rand_seed                        0x0004994b   Thumb Code    10  fips_rand.o(.text)
    fips_do_rand_add                         0x00049955   Thumb Code    10  fips_rand.o(.text)
    __sta__dyninit                           0x0004996b   Thumb Code    94  fips_rand.o(.text)
    .text                                    0x000499c8   Section        0  fips.o(.text)
    fips_clear_owning_thread                 0x000499c9   Thumb Code    52  fips.o(.text)
    fips_is_owning_thread                    0x000499fd   Thumb Code    56  fips.o(.text)
    fips_set_mode                            0x00049a35   Thumb Code    28  fips.o(.text)
    fips_asc_check                           0x00049a6d   Thumb Code   134  fips.o(.text)
    fips_check_auth                          0x00049af3   Thumb Code   146  fips.o(.text)
    fips_set_owning_thread                   0x00049b85   Thumb Code    42  fips.o(.text)
    .text                                    0x00049d98   Section        0  fips_post.o(.text)
    .text                                    0x0004a274   Section      472  armv4-mont-cc.o(.text)
    .text                                    0x0004a44c   Section      628  ghash-armv4-cc.o(.text)
    .text                                    0x0004a6c0   Section     4176  sha256-armv4-cc.o(.text)
    .text                                    0x0004b710   Section        0  x_algor.o(.text)
    __sta__dyninit                           0x0004b865   Thumb Code    78  x_algor.o(.text)
    .text                                    0x0004b8f0   Section        0  bn_sqrt.o(.text)
    .text                                    0x0004be54   Section        0  ecs_asn1.o(.text)
    __sta__dyninit                           0x0004beab   Thumb Code    44  ecs_asn1.o(.text)
    .text                                    0x0004beec   Section        0  c_alld.o(.text)
    .text                                    0x0004bf50   Section        0  rand_poll_target.o(.text)
    .text                                    0x0004bfc4   Section        0  ech_ossl.o(.text)
    ecdh_compute_key                         0x0004bfd1   Thumb Code   556  ech_ossl.o(.text)
    __sta__dyninit                           0x0004c209   Thumb Code    34  ech_ossl.o(.text)
    .text                                    0x0004c240   Section        0  fips_enc.o(.text)
    bad_init                                 0x0004c269   Thumb Code    24  fips_enc.o(.text)
    bad_do_cipher                            0x0004c281   Thumb Code    24  fips_enc.o(.text)
    bad_set_asn1                             0x0004c299   Thumb Code    24  fips_enc.o(.text)
    bad_get_asn1                             0x0004c2b1   Thumb Code    24  fips_enc.o(.text)
    bad_ctrl                                 0x0004c2c9   Thumb Code    24  fips_enc.o(.text)
    __sta__dyninit                           0x0004c9b1   Thumb Code    72  fips_enc.o(.text)
    .text                                    0x0004c9f8   Section        0  fips_ecdsa_sign.o(.text)
    .text                                    0x0004cb74   Section        0  fips_drbg_ec.o(.text)
    hash_df                                  0x0004cb75   Thumb Code   328  fips_drbg_ec.o(.text)
    bn2binpad                                0x0004ccbd   Thumb Code    80  fips_drbg_ec.o(.text)
    bin2bnbits                               0x0004cd0d   Thumb Code    48  fips_drbg_ec.o(.text)
    drbg_ec_mul                              0x0004cd3d   Thumb Code    94  fips_drbg_ec.o(.text)
    drbg_ec_instantiate                      0x0004cd9b   Thumb Code    78  fips_drbg_ec.o(.text)
    drbg_ec_reseed                           0x0004cde9   Thumb Code   116  fips_drbg_ec.o(.text)
    drbg_ec_generate                         0x0004ce5d   Thumb Code   432  fips_drbg_ec.o(.text)
    drbg_ec_uninstantiate                    0x0004d00d   Thumb Code   100  fips_drbg_ec.o(.text)
    .text                                    0x0004d264   Section        0  fips_drbg_hmac.o(.text)
    drbg_hmac_update                         0x0004d265   Thumb Code   520  fips_drbg_hmac.o(.text)
    drbg_hmac_instantiate                    0x0004d46d   Thumb Code    84  fips_drbg_hmac.o(.text)
    drbg_hmac_reseed                         0x0004d4c1   Thumb Code    36  fips_drbg_hmac.o(.text)
    drbg_hmac_generate                       0x0004d4e5   Thumb Code   320  fips_drbg_hmac.o(.text)
    drbg_hmac_uninstantiate                  0x0004d625   Thumb Code    54  fips_drbg_hmac.o(.text)
    .text                                    0x0004d748   Section        0  fips_drbg_hash.o(.text)
    hash_df                                  0x0004d749   Thumb Code   352  fips_drbg_hash.o(.text)
    ctx_add_buf                              0x0004d8a9   Thumb Code   126  fips_drbg_hash.o(.text)
    ctx_add_md                               0x0004d927   Thumb Code    44  fips_drbg_hash.o(.text)
    hash_gen                                 0x0004d953   Thumb Code   204  fips_drbg_hash.o(.text)
    drbg_hash_instantiate                    0x0004da1f   Thumb Code   102  fips_drbg_hash.o(.text)
    drbg_hash_reseed                         0x0004da85   Thumb Code   108  fips_drbg_hash.o(.text)
    drbg_hash_generate                       0x0004daf1   Thumb Code   336  fips_drbg_hash.o(.text)
    drbg_hash_uninstantiate                  0x0004dc41   Thumb Code    56  fips_drbg_hash.o(.text)
    .text                                    0x0004dd44   Section        0  fips_rsa_sign.o(.text)
    fips_digestinfo_encoding                 0x0004dd45   Thumb Code   112  fips_rsa_sign.o(.text)
    fips_digestinfo_nn_encoding              0x0004ddb5   Thumb Code   112  fips_rsa_sign.o(.text)
    .text                                    0x0004e3dc   Section        0  fips_rsa_selftest.o(.text)
    setrsakey                                0x0004e3dd   Thumb Code   198  fips_rsa_selftest.o(.text)
    .text                                    0x0004e508   Section        0  fips_sha1_selftest.o(.text)
    .text                                    0x0004e570   Section     1368  sha1-armv4-large-cc.o(.text)
    .text                                    0x0004eac8   Section        0  cmac.o(.text)
    make_kn                                  0x0004eac9   Thumb Code    88  cmac.o(.text)
    .text                                    0x0004ef5c   Section        0  ecp_mont.o(.text)
    __sta__dyninit                           0x0004f20f   Thumb Code   322  ecp_mont.o(.text)
    .text                                    0x0004f350   Section        0  ecs_ossl.o(.text)
    ecdsa_sign_setup                         0x0004f35d   Thumb Code   584  ecs_ossl.o(.text)
    ecdsa_do_sign                            0x0004f5b1   Thumb Code   626  ecs_ossl.o(.text)
    ecdsa_do_verify                          0x0004f823   Thumb Code   690  ecs_ossl.o(.text)
    __sta__dyninit                           0x0004fb21   Thumb Code    58  ecs_ossl.o(.text)
    .text                                    0x0004fb74   Section        0  e_aes.o(.text)
    aes_init_key                             0x0004fb75   Thumb Code   152  e_aes.o(.text)
    aes_cbc_cipher                           0x0004fc0d   Thumb Code    82  e_aes.o(.text)
    aes_ecb_cipher                           0x0004fc5f   Thumb Code    56  e_aes.o(.text)
    aes_ofb_cipher                           0x0004fc97   Thumb Code    40  e_aes.o(.text)
    aes_cfb_cipher                           0x0004fcbf   Thumb Code    48  e_aes.o(.text)
    aes_cfb8_cipher                          0x0004fcef   Thumb Code    48  e_aes.o(.text)
    aes_cfb1_cipher                          0x0004fd1f   Thumb Code   152  e_aes.o(.text)
    aes_ctr_cipher                           0x0004fdb7   Thumb Code    88  e_aes.o(.text)
    aes_gcm_cleanup                          0x0004ff0b   Thumb Code    66  e_aes.o(.text)
    ctr64_inc                                0x0004ff4d   Thumb Code    22  e_aes.o(.text)
    aes_gcm_ctrl                             0x0004ff63   Thumb Code   604  e_aes.o(.text)
    aes_gcm_init_key                         0x000501bf   Thumb Code   154  e_aes.o(.text)
    aes_gcm_tls_cipher                       0x00050259   Thumb Code   304  e_aes.o(.text)
    aes_xts_ctrl                             0x000504bb   Thumb Code    24  e_aes.o(.text)
    aes_xts_init_key                         0x000504d3   Thumb Code   146  e_aes.o(.text)
    aes_xts_cipher                           0x00050565   Thumb Code   174  e_aes.o(.text)
    aes_ccm_ctrl                             0x0005062b   Thumb Code   196  e_aes.o(.text)
    aes_ccm_init_key                         0x000506ef   Thumb Code   110  e_aes.o(.text)
    aes_ccm_cipher                           0x0005075d   Thumb Code   400  e_aes.o(.text)
    __sta__dyninit                           0x00050911   Thumb Code   648  e_aes.o(.text)
    .text                                    0x00050b98   Section        0  aes_cbc.o(.text)
    .text                                    0x00050bd4   Section        0  ecp_smpl.o(.text)
    __sta__dyninit                           0x000521bd   Thumb Code   280  ecp_smpl.o(.text)
    .text                                    0x000522d4   Section       16  rt_ctype_table.o(.text)
    .text                                    0x000522e4   Section      816  lludiv5.o(.text)
    .text                                    0x00052614   Section        0  c89vsnprintf.o(.text)
    .text                                    0x00052648   Section        0  __2printf.o(.text)
    .text                                    0x00052664   Section        0  __2sprintf.o(.text)
    .text                                    0x00052690   Section        0  __2snprintf.o(.text)
    .text                                    0x000526c8   Section        0  _printf_dec.o(.text)
    .text                                    0x0005273c   Section        0  _printf_hex_int_ll_ptr.o(.text)
    _printf_hex_common                       0x0005273d   Thumb Code     0  _printf_hex_int_ll_ptr.o(.text)
    .text                                    0x000527d8   Section        0  __printf_flags_ss_wp.o(.text)
    .text                                    0x00052960   Section        0  memchr.o(.text)
    .text                                    0x00052990   Section        0  strncmp.o(.text)
    .text                                    0x00052a80   Section       12  memcpy.o(.text)
    .text                                    0x00052a90   Section      212  rt_memcpy.o(.text)
    .text                                    0x00052b64   Section      212  rt_memmove.o(.text)
    .text                                    0x00052c38   Section      124  rt_memcpy_w_qsp.o(.text)
    .text                                    0x00052cb4   Section      108  strncpy.o(.text)
    .text                                    0x00052d24   Section      160  strcmp.o(.text)
    .text                                    0x00052dc4   Section      556  aeabi_sdivfast_rs.o(.text)
    __arm_div_large_positive                 0x00052df8   ARM Code       0  aeabi_sdivfast_rs.o(.text)
    __arm_div16                              0x00052e20   ARM Code       0  aeabi_sdivfast_rs.o(.text)
    __arm_div12                              0x00052e50   ARM Code       0  aeabi_sdivfast_rs.o(.text)
    __arm_div8                               0x00052e84   ARM Code       0  aeabi_sdivfast_rs.o(.text)
    __arm_div5                               0x00052ea8   ARM Code       0  aeabi_sdivfast_rs.o(.text)
    __arm_div2                               0x00052ecc   ARM Code       0  aeabi_sdivfast_rs.o(.text)
    .text_udiv                               0x00052ff0   Section       48  aeabi_sdivfast_rs.o(.text_udiv)
    .text                                    0x00053020   Section        0  init_aeabi.o(.text)
    x$fpl$dadd                               0x00053044   Section      336  daddsub_clz.o(x$fpl$dadd)
    _dadd1                                   0x00053055   Thumb Code     0  daddsub_clz.o(x$fpl$dadd)
    x$fpl$dsub                               0x00053194   Section      468  daddsub_clz.o(x$fpl$dsub)
    _dsub1                                   0x000531a5   Thumb Code     0  daddsub_clz.o(x$fpl$dsub)
    x$fpl$dfix                               0x00053368   Section       94  dfix.o(x$fpl$dfix)
    x$fpl$dleqf                              0x000533c8   Section      120  dleqf.o(x$fpl$dleqf)
    x$fpl$dmul                               0x00053440   Section      340  dmul.o(x$fpl$dmul)
    .text                                    0x00053594   Section       12  rt_locale.o(.text)
    .text                                    0x000535a0   Section        0  _printf_char_common.o(.text)
    _printf_input_char                       0x000535a1   Thumb Code    10  _printf_char_common.o(.text)
    .text                                    0x000535d0   Section        0  _printf_char_file.o(.text)
    .text                                    0x000535f4   Section        0  _printf_wctomb.o(.text)
    .text                                    0x000536ac   Section        0  _printf_longlong_dec.o(.text)
    .text                                    0x00053724   Section        0  _printf_oct_int_ll.o(.text)
    _printf_longlong_oct_internal            0x00053725   Thumb Code     0  _printf_oct_int_ll.o(.text)
    locale$$code                             0x0005379c   Section       44  lc_ctype_c.o(locale$$code)
    .text                                    0x000537c8   Section      128  rt_memmove_w.o(.text)
    .text                                    0x00053848   Section       44  rtudiv10.o(.text)
    .text                                    0x00053874   Section      152  lludiv10.o(.text)
    .text                                    0x0005390c   Section        0  initio.o(.text)
    .text                                    0x00053a68   Section        0  _printf_fp_infnan.o(.text)
    .text                                    0x00053ae8   Section        0  bigflt0.o(.text)
    .text                                    0x00053bc0   Section        0  fopen.o(.text)
    _freopen_locked                          0x00053bc1   Thumb Code     0  fopen.o(.text)
    locale$$code                             0x00053cac   Section       44  lc_numeric_c.o(locale$$code)
    .text                                    0x00053cd8   Section       12  rt_heap_descriptor.o(.text)
    .text                                    0x00053ce4   Section        0  fseek.o(.text)
    .text                                    0x00053ddc   Section        0  stdio.o(.text)
    .text                                    0x00053ecc   Section        0  defsig_rtred_inner.o(.text)
    .text                                    0x00053f00   Section        0  sys_exit.o(.text)
    .emb_text                                0x00053f0c   Section        0  maybetermalloc1.o(.emb_text)
    .text                                    0x00053f0c   Section        0  defsig_rtmem_inner.o(.text)
    .text                                    0x00053f5c   Section        0  heapauxa.o(.text)
    .text                                    0x00053fac   Section       12  rt_errno_addr.o(.text)
    .text                                    0x00053fb8   Section        0  ss_SKEIN.o(.text)
    Skein_Put64_LSB_First                    0x00053fb8   ARM Code      80  ss_SKEIN.o(.text)
    Skein_Get64_LSB_First                    0x00054008   ARM Code     208  ss_SKEIN.o(.text)
    Skein_256_Process_Block                  0x000540d8   ARM Code    7444  ss_SKEIN.o(.text)
    Skein_256_Init                           0x00055dec   ARM Code     496  ss_SKEIN.o(.text)
    Init                                     0x00055fdc   ARM Code      28  ss_SKEIN.o(.text)
    Skein_256_Update                         0x00055ff8   ARM Code     224  ss_SKEIN.o(.text)
    Update                                   0x000560d8   ARM Code     132  ss_SKEIN.o(.text)
    Skein_256_Final                          0x0005615c   ARM Code     316  ss_SKEIN.o(.text)
    Final                                    0x00056298   ARM Code       8  ss_SKEIN.o(.text)
    .text                                    0x000562a0   Section     1848  sha512-armv4-cc.o(.text)
    tzapp_syscall_asm                        0x00056a00   Section      196  tzapp_syscall.o(tzapp_syscall_asm)
    .constdata                               0x00056aec   Section       19  tz_main.o(.constdata)
    __func__                                 0x00056aec   Data          19  tz_main.o(.constdata)
    .constdata                               0x00056aff   Section      224  tz_ta_crypto_static.o(.constdata)
    .constdata                               0x00056bdf   Section      259  tz_ta_crypto_static.o(.constdata)
    .constdata                               0x00056ce2   Section      128  ss_key_management_skmm_key_generation.o(.constdata)
    defaultPassword                          0x00056ce2   Data          64  ss_key_management_skmm_key_generation.o(.constdata)
    mDefaultLSMPassword                      0x00056d22   Data          64  ss_key_management_skmm_key_generation.o(.constdata)
    .constdata                               0x00056d62   Section      123  X509v3_base64_decoder.o(.constdata)
    decode_table                             0x00056d62   Data         123  X509v3_base64_decoder.o(.constdata)
    .constdata                               0x00056ddd   Section       17  cache_table.o(.constdata)
    __func__                                 0x00056ddd   Data          17  cache_table.o(.constdata)
    .constdata                               0x00056dee   Section       19  odex.o(.constdata)
    __func__                                 0x00056dee   Data           8  odex.o(.constdata)
    __func__                                 0x00056df6   Data          11  odex.o(.constdata)
    .constdata                               0x00056e01   Section       44  dsa_lib.o(.constdata)
    .constdata                               0x00056e2d   Section       17  mem_clr.o(.constdata)
    hexdig                                   0x00056e2d   Data          17  mem_clr.o(.constdata)
    .constdata                               0x00056e3e   Section       49  asn1_lib.o(.constdata)
    .constdata                               0x00056e6f   Section       47  rsa_lib.o(.constdata)
    .constdata                               0x00056e9e   Section       54  bn_lib.o(.constdata)
    .constdata                               0x00056ed4   Section       51  sha512.o(.constdata)
    .constdata                               0x00056f07   Section       51  sha256.o(.constdata)
    .constdata                               0x00056f3a   Section       49  lhash.o(.constdata)
    .constdata                               0x00056f6b   Section       49  stack.o(.constdata)
    .constdata                               0x00056f9c   Section       48  sha1dgst.o(.constdata)
    .constdata                               0x00056fcc   Section       32  ctr_drbg.o(.constdata)
    ctr_drbg_df_key                          0x00056fcc   Data          32  ctr_drbg.o(.constdata)
    .constdata                               0x00056fec   Section       96  fips_ecdsa_selftest.o(.constdata)
    P_224_name                               0x00056fec   Data          12  fips_ecdsa_selftest.o(.constdata)
    P_224_d                                  0x00056ff8   Data          28  fips_ecdsa_selftest.o(.constdata)
    P_224_qx                                 0x00057014   Data          28  fips_ecdsa_selftest.o(.constdata)
    P_224_qy                                 0x00057030   Data          28  fips_ecdsa_selftest.o(.constdata)
    .constdata                               0x0005704c   Section    13604  fips_drbg_selftest.o(.constdata)
    aes_128_use_df_pr_nonce                  0x0005704c   Data           8  fips_drbg_selftest.o(.constdata)
    aes_128_use_df_nonce                     0x00057054   Data           8  fips_drbg_selftest.o(.constdata)
    aes_128_no_df_pr_nonce                   0x0005705c   Data           8  fips_drbg_selftest.o(.constdata)
    aes_128_no_df_nonce                      0x00057064   Data           8  fips_drbg_selftest.o(.constdata)
    sha1_pr_nonce                            0x0005706c   Data           8  fips_drbg_selftest.o(.constdata)
    sha1_nonce                               0x00057074   Data           8  fips_drbg_selftest.o(.constdata)
    hmac_sha1_pr_nonce                       0x0005707c   Data           8  fips_drbg_selftest.o(.constdata)
    hmac_sha1_nonce                          0x00057084   Data           8  fips_drbg_selftest.o(.constdata)
    p_256_sha1_pr_nonce                      0x0005708c   Data           8  fips_drbg_selftest.o(.constdata)
    p_256_sha1_nonce                         0x00057094   Data           8  fips_drbg_selftest.o(.constdata)
    p_256_sha224_pr_nonce                    0x0005709c   Data           8  fips_drbg_selftest.o(.constdata)
    p_256_sha224_nonce                       0x000570a4   Data           8  fips_drbg_selftest.o(.constdata)
    p_256_sha256_pr_nonce                    0x000570ac   Data           8  fips_drbg_selftest.o(.constdata)
    p_256_sha256_nonce                       0x000570b4   Data           8  fips_drbg_selftest.o(.constdata)
    p_256_sha384_pr_nonce                    0x000570bc   Data           8  fips_drbg_selftest.o(.constdata)
    p_256_sha384_nonce                       0x000570c4   Data           8  fips_drbg_selftest.o(.constdata)
    p_256_sha512_pr_nonce                    0x000570cc   Data           8  fips_drbg_selftest.o(.constdata)
    p_256_sha512_nonce                       0x000570d4   Data           8  fips_drbg_selftest.o(.constdata)
    aes_128_use_df_pr_entropyinput           0x000570dc   Data          16  fips_drbg_selftest.o(.constdata)
    aes_128_use_df_pr_personalizationstring  0x000570ec   Data          16  fips_drbg_selftest.o(.constdata)
    aes_128_use_df_pr_additionalinput        0x000570fc   Data          16  fips_drbg_selftest.o(.constdata)
    aes_128_use_df_pr_entropyinputpr         0x0005710c   Data          16  fips_drbg_selftest.o(.constdata)
    aes_128_use_df_pr_int_returnedbits       0x0005711c   Data          16  fips_drbg_selftest.o(.constdata)
    aes_128_use_df_pr_additionalinput2       0x0005712c   Data          16  fips_drbg_selftest.o(.constdata)
    aes_128_use_df_pr_entropyinputpr2        0x0005713c   Data          16  fips_drbg_selftest.o(.constdata)
    aes_128_use_df_pr_returnedbits           0x0005714c   Data          16  fips_drbg_selftest.o(.constdata)
    aes_128_use_df_entropyinput              0x0005715c   Data          16  fips_drbg_selftest.o(.constdata)
    aes_128_use_df_personalizationstring     0x0005716c   Data          16  fips_drbg_selftest.o(.constdata)
    aes_128_use_df_additionalinput           0x0005717c   Data          16  fips_drbg_selftest.o(.constdata)
    aes_128_use_df_int_returnedbits          0x0005718c   Data          16  fips_drbg_selftest.o(.constdata)
    aes_128_use_df_entropyinputreseed        0x0005719c   Data          16  fips_drbg_selftest.o(.constdata)
    aes_128_use_df_additionalinputreseed     0x000571ac   Data          16  fips_drbg_selftest.o(.constdata)
    aes_128_use_df_additionalinput2          0x000571bc   Data          16  fips_drbg_selftest.o(.constdata)
    aes_128_use_df_returnedbits              0x000571cc   Data          16  fips_drbg_selftest.o(.constdata)
    aes_192_use_df_pr_entropyinput           0x000571dc   Data          24  fips_drbg_selftest.o(.constdata)
    aes_192_use_df_pr_nonce                  0x000571f4   Data          16  fips_drbg_selftest.o(.constdata)
    aes_192_use_df_pr_personalizationstring  0x00057204   Data          32  fips_drbg_selftest.o(.constdata)
    aes_192_use_df_pr_additionalinput        0x00057224   Data          32  fips_drbg_selftest.o(.constdata)
    aes_192_use_df_pr_entropyinputpr         0x00057244   Data          24  fips_drbg_selftest.o(.constdata)
    aes_192_use_df_pr_int_returnedbits       0x0005725c   Data          16  fips_drbg_selftest.o(.constdata)
    aes_192_use_df_pr_additionalinput2       0x0005726c   Data          32  fips_drbg_selftest.o(.constdata)
    aes_192_use_df_pr_entropyinputpr2        0x0005728c   Data          24  fips_drbg_selftest.o(.constdata)
    aes_192_use_df_pr_returnedbits           0x000572a4   Data          16  fips_drbg_selftest.o(.constdata)
    aes_192_use_df_entropyinput              0x000572b4   Data          24  fips_drbg_selftest.o(.constdata)
    aes_192_use_df_nonce                     0x000572cc   Data          16  fips_drbg_selftest.o(.constdata)
    aes_192_use_df_personalizationstring     0x000572dc   Data          32  fips_drbg_selftest.o(.constdata)
    aes_192_use_df_additionalinput           0x000572fc   Data          32  fips_drbg_selftest.o(.constdata)
    aes_192_use_df_int_returnedbits          0x0005731c   Data          16  fips_drbg_selftest.o(.constdata)
    aes_192_use_df_entropyinputreseed        0x0005732c   Data          24  fips_drbg_selftest.o(.constdata)
    aes_192_use_df_additionalinputreseed     0x00057344   Data          32  fips_drbg_selftest.o(.constdata)
    aes_192_use_df_additionalinput2          0x00057364   Data          32  fips_drbg_selftest.o(.constdata)
    aes_192_use_df_returnedbits              0x00057384   Data          16  fips_drbg_selftest.o(.constdata)
    aes_256_use_df_pr_entropyinput           0x00057394   Data          32  fips_drbg_selftest.o(.constdata)
    aes_256_use_df_pr_nonce                  0x000573b4   Data          16  fips_drbg_selftest.o(.constdata)
    aes_256_use_df_pr_personalizationstring  0x000573c4   Data          32  fips_drbg_selftest.o(.constdata)
    aes_256_use_df_pr_additionalinput        0x000573e4   Data          32  fips_drbg_selftest.o(.constdata)
    aes_256_use_df_pr_entropyinputpr         0x00057404   Data          32  fips_drbg_selftest.o(.constdata)
    aes_256_use_df_pr_int_returnedbits       0x00057424   Data          16  fips_drbg_selftest.o(.constdata)
    aes_256_use_df_pr_additionalinput2       0x00057434   Data          32  fips_drbg_selftest.o(.constdata)
    aes_256_use_df_pr_entropyinputpr2        0x00057454   Data          32  fips_drbg_selftest.o(.constdata)
    aes_256_use_df_pr_returnedbits           0x00057474   Data          16  fips_drbg_selftest.o(.constdata)
    aes_256_use_df_entropyinput              0x00057484   Data          32  fips_drbg_selftest.o(.constdata)
    aes_256_use_df_nonce                     0x000574a4   Data          16  fips_drbg_selftest.o(.constdata)
    aes_256_use_df_personalizationstring     0x000574b4   Data          32  fips_drbg_selftest.o(.constdata)
    aes_256_use_df_additionalinput           0x000574d4   Data          32  fips_drbg_selftest.o(.constdata)
    aes_256_use_df_int_returnedbits          0x000574f4   Data          16  fips_drbg_selftest.o(.constdata)
    aes_256_use_df_entropyinputreseed        0x00057504   Data          32  fips_drbg_selftest.o(.constdata)
    aes_256_use_df_additionalinputreseed     0x00057524   Data          32  fips_drbg_selftest.o(.constdata)
    aes_256_use_df_additionalinput2          0x00057544   Data          32  fips_drbg_selftest.o(.constdata)
    aes_256_use_df_returnedbits              0x00057564   Data          16  fips_drbg_selftest.o(.constdata)
    aes_128_no_df_pr_entropyinput            0x00057574   Data          32  fips_drbg_selftest.o(.constdata)
    aes_128_no_df_pr_personalizationstring   0x00057594   Data          32  fips_drbg_selftest.o(.constdata)
    aes_128_no_df_pr_additionalinput         0x000575b4   Data          32  fips_drbg_selftest.o(.constdata)
    aes_128_no_df_pr_entropyinputpr          0x000575d4   Data          32  fips_drbg_selftest.o(.constdata)
    aes_128_no_df_pr_int_returnedbits        0x000575f4   Data          16  fips_drbg_selftest.o(.constdata)
    aes_128_no_df_pr_additionalinput2        0x00057604   Data          32  fips_drbg_selftest.o(.constdata)
    aes_128_no_df_pr_entropyinputpr2         0x00057624   Data          32  fips_drbg_selftest.o(.constdata)
    aes_128_no_df_pr_returnedbits            0x00057644   Data          16  fips_drbg_selftest.o(.constdata)
    aes_128_no_df_entropyinput               0x00057654   Data          32  fips_drbg_selftest.o(.constdata)
    aes_128_no_df_personalizationstring      0x00057674   Data          32  fips_drbg_selftest.o(.constdata)
    aes_128_no_df_additionalinput            0x00057694   Data          32  fips_drbg_selftest.o(.constdata)
    aes_128_no_df_int_returnedbits           0x000576b4   Data          16  fips_drbg_selftest.o(.constdata)
    aes_128_no_df_entropyinputreseed         0x000576c4   Data          32  fips_drbg_selftest.o(.constdata)
    aes_128_no_df_additionalinputreseed      0x000576e4   Data          32  fips_drbg_selftest.o(.constdata)
    aes_128_no_df_additionalinput2           0x00057704   Data          32  fips_drbg_selftest.o(.constdata)
    aes_128_no_df_returnedbits               0x00057724   Data          16  fips_drbg_selftest.o(.constdata)
    aes_192_no_df_pr_entropyinput            0x00057734   Data          40  fips_drbg_selftest.o(.constdata)
    aes_192_no_df_pr_nonce                   0x0005775c   Data          16  fips_drbg_selftest.o(.constdata)
    aes_192_no_df_pr_personalizationstring   0x0005776c   Data          40  fips_drbg_selftest.o(.constdata)
    aes_192_no_df_pr_additionalinput         0x00057794   Data          40  fips_drbg_selftest.o(.constdata)
    aes_192_no_df_pr_entropyinputpr          0x000577bc   Data          40  fips_drbg_selftest.o(.constdata)
    aes_192_no_df_pr_int_returnedbits        0x000577e4   Data          16  fips_drbg_selftest.o(.constdata)
    aes_192_no_df_pr_additionalinput2        0x000577f4   Data          40  fips_drbg_selftest.o(.constdata)
    aes_192_no_df_pr_entropyinputpr2         0x0005781c   Data          40  fips_drbg_selftest.o(.constdata)
    aes_192_no_df_pr_returnedbits            0x00057844   Data          16  fips_drbg_selftest.o(.constdata)
    aes_192_no_df_entropyinput               0x00057854   Data          40  fips_drbg_selftest.o(.constdata)
    aes_192_no_df_nonce                      0x0005787c   Data          16  fips_drbg_selftest.o(.constdata)
    aes_192_no_df_personalizationstring      0x0005788c   Data          40  fips_drbg_selftest.o(.constdata)
    aes_192_no_df_additionalinput            0x000578b4   Data          40  fips_drbg_selftest.o(.constdata)
    aes_192_no_df_int_returnedbits           0x000578dc   Data          16  fips_drbg_selftest.o(.constdata)
    aes_192_no_df_entropyinputreseed         0x000578ec   Data          40  fips_drbg_selftest.o(.constdata)
    aes_192_no_df_additionalinputreseed      0x00057914   Data          40  fips_drbg_selftest.o(.constdata)
    aes_192_no_df_additionalinput2           0x0005793c   Data          40  fips_drbg_selftest.o(.constdata)
    aes_192_no_df_returnedbits               0x00057964   Data          16  fips_drbg_selftest.o(.constdata)
    aes_256_no_df_pr_entropyinput            0x00057974   Data          48  fips_drbg_selftest.o(.constdata)
    aes_256_no_df_pr_nonce                   0x000579a4   Data          16  fips_drbg_selftest.o(.constdata)
    aes_256_no_df_pr_personalizationstring   0x000579b4   Data          48  fips_drbg_selftest.o(.constdata)
    aes_256_no_df_pr_additionalinput         0x000579e4   Data          48  fips_drbg_selftest.o(.constdata)
    aes_256_no_df_pr_entropyinputpr          0x00057a14   Data          48  fips_drbg_selftest.o(.constdata)
    aes_256_no_df_pr_int_returnedbits        0x00057a44   Data          16  fips_drbg_selftest.o(.constdata)
    aes_256_no_df_pr_additionalinput2        0x00057a54   Data          48  fips_drbg_selftest.o(.constdata)
    aes_256_no_df_pr_entropyinputpr2         0x00057a84   Data          48  fips_drbg_selftest.o(.constdata)
    aes_256_no_df_pr_returnedbits            0x00057ab4   Data          16  fips_drbg_selftest.o(.constdata)
    aes_256_no_df_entropyinput               0x00057ac4   Data          48  fips_drbg_selftest.o(.constdata)
    aes_256_no_df_nonce                      0x00057af4   Data          16  fips_drbg_selftest.o(.constdata)
    aes_256_no_df_personalizationstring      0x00057b04   Data          48  fips_drbg_selftest.o(.constdata)
    aes_256_no_df_additionalinput            0x00057b34   Data          48  fips_drbg_selftest.o(.constdata)
    aes_256_no_df_int_returnedbits           0x00057b64   Data          16  fips_drbg_selftest.o(.constdata)
    aes_256_no_df_entropyinputreseed         0x00057b74   Data          48  fips_drbg_selftest.o(.constdata)
    aes_256_no_df_additionalinputreseed      0x00057ba4   Data          48  fips_drbg_selftest.o(.constdata)
    aes_256_no_df_additionalinput2           0x00057bd4   Data          48  fips_drbg_selftest.o(.constdata)
    aes_256_no_df_returnedbits               0x00057c04   Data          16  fips_drbg_selftest.o(.constdata)
    sha1_pr_entropyinput                     0x00057c14   Data          16  fips_drbg_selftest.o(.constdata)
    sha1_pr_personalizationstring            0x00057c24   Data          16  fips_drbg_selftest.o(.constdata)
    sha1_pr_additionalinput                  0x00057c34   Data          16  fips_drbg_selftest.o(.constdata)
    sha1_pr_entropyinputpr                   0x00057c44   Data          16  fips_drbg_selftest.o(.constdata)
    sha1_pr_int_returnedbits                 0x00057c54   Data          20  fips_drbg_selftest.o(.constdata)
    sha1_pr_additionalinput2                 0x00057c68   Data          16  fips_drbg_selftest.o(.constdata)
    sha1_pr_entropyinputpr2                  0x00057c78   Data          16  fips_drbg_selftest.o(.constdata)
    sha1_pr_returnedbits                     0x00057c88   Data          20  fips_drbg_selftest.o(.constdata)
    sha1_entropyinput                        0x00057c9c   Data          16  fips_drbg_selftest.o(.constdata)
    sha1_personalizationstring               0x00057cac   Data          16  fips_drbg_selftest.o(.constdata)
    sha1_additionalinput                     0x00057cbc   Data          16  fips_drbg_selftest.o(.constdata)
    sha1_int_returnedbits                    0x00057ccc   Data          20  fips_drbg_selftest.o(.constdata)
    sha1_entropyinputreseed                  0x00057ce0   Data          16  fips_drbg_selftest.o(.constdata)
    sha1_additionalinputreseed               0x00057cf0   Data          16  fips_drbg_selftest.o(.constdata)
    sha1_additionalinput2                    0x00057d00   Data          16  fips_drbg_selftest.o(.constdata)
    sha1_returnedbits                        0x00057d10   Data          20  fips_drbg_selftest.o(.constdata)
    sha224_pr_entropyinput                   0x00057d24   Data          24  fips_drbg_selftest.o(.constdata)
    sha224_pr_nonce                          0x00057d3c   Data          12  fips_drbg_selftest.o(.constdata)
    sha224_pr_personalizationstring          0x00057d48   Data          24  fips_drbg_selftest.o(.constdata)
    sha224_pr_additionalinput                0x00057d60   Data          24  fips_drbg_selftest.o(.constdata)
    sha224_pr_entropyinputpr                 0x00057d78   Data          24  fips_drbg_selftest.o(.constdata)
    sha224_pr_int_returnedbits               0x00057d90   Data          28  fips_drbg_selftest.o(.constdata)
    sha224_pr_additionalinput2               0x00057dac   Data          24  fips_drbg_selftest.o(.constdata)
    sha224_pr_entropyinputpr2                0x00057dc4   Data          24  fips_drbg_selftest.o(.constdata)
    sha224_pr_returnedbits                   0x00057ddc   Data          28  fips_drbg_selftest.o(.constdata)
    sha224_entropyinput                      0x00057df8   Data          24  fips_drbg_selftest.o(.constdata)
    sha224_nonce                             0x00057e10   Data          12  fips_drbg_selftest.o(.constdata)
    sha224_personalizationstring             0x00057e1c   Data          24  fips_drbg_selftest.o(.constdata)
    sha224_additionalinput                   0x00057e34   Data          24  fips_drbg_selftest.o(.constdata)
    sha224_int_returnedbits                  0x00057e4c   Data          28  fips_drbg_selftest.o(.constdata)
    sha224_entropyinputreseed                0x00057e68   Data          24  fips_drbg_selftest.o(.constdata)
    sha224_additionalinputreseed             0x00057e80   Data          24  fips_drbg_selftest.o(.constdata)
    sha224_additionalinput2                  0x00057e98   Data          24  fips_drbg_selftest.o(.constdata)
    sha224_returnedbits                      0x00057eb0   Data          28  fips_drbg_selftest.o(.constdata)
    sha256_pr_entropyinput                   0x00057ecc   Data          32  fips_drbg_selftest.o(.constdata)
    sha256_pr_nonce                          0x00057eec   Data          16  fips_drbg_selftest.o(.constdata)
    sha256_pr_personalizationstring          0x00057efc   Data          32  fips_drbg_selftest.o(.constdata)
    sha256_pr_additionalinput                0x00057f1c   Data          32  fips_drbg_selftest.o(.constdata)
    sha256_pr_entropyinputpr                 0x00057f3c   Data          32  fips_drbg_selftest.o(.constdata)
    sha256_pr_int_returnedbits               0x00057f5c   Data          32  fips_drbg_selftest.o(.constdata)
    sha256_pr_additionalinput2               0x00057f7c   Data          32  fips_drbg_selftest.o(.constdata)
    sha256_pr_entropyinputpr2                0x00057f9c   Data          32  fips_drbg_selftest.o(.constdata)
    sha256_pr_returnedbits                   0x00057fbc   Data          32  fips_drbg_selftest.o(.constdata)
    sha256_entropyinput                      0x00057fdc   Data          32  fips_drbg_selftest.o(.constdata)
    sha256_nonce                             0x00057ffc   Data          16  fips_drbg_selftest.o(.constdata)
    sha256_personalizationstring             0x0005800c   Data          32  fips_drbg_selftest.o(.constdata)
    sha256_additionalinput                   0x0005802c   Data          32  fips_drbg_selftest.o(.constdata)
    sha256_int_returnedbits                  0x0005804c   Data          32  fips_drbg_selftest.o(.constdata)
    sha256_entropyinputreseed                0x0005806c   Data          32  fips_drbg_selftest.o(.constdata)
    sha256_additionalinputreseed             0x0005808c   Data          32  fips_drbg_selftest.o(.constdata)
    sha256_additionalinput2                  0x000580ac   Data          32  fips_drbg_selftest.o(.constdata)
    sha256_returnedbits                      0x000580cc   Data          32  fips_drbg_selftest.o(.constdata)
    sha384_pr_entropyinput                   0x000580ec   Data          32  fips_drbg_selftest.o(.constdata)
    sha384_pr_nonce                          0x0005810c   Data          16  fips_drbg_selftest.o(.constdata)
    sha384_pr_personalizationstring          0x0005811c   Data          32  fips_drbg_selftest.o(.constdata)
    sha384_pr_additionalinput                0x0005813c   Data          32  fips_drbg_selftest.o(.constdata)
    sha384_pr_entropyinputpr                 0x0005815c   Data          32  fips_drbg_selftest.o(.constdata)
    sha384_pr_int_returnedbits               0x0005817c   Data          48  fips_drbg_selftest.o(.constdata)
    sha384_pr_additionalinput2               0x000581ac   Data          32  fips_drbg_selftest.o(.constdata)
    sha384_pr_entropyinputpr2                0x000581cc   Data          32  fips_drbg_selftest.o(.constdata)
    sha384_pr_returnedbits                   0x000581ec   Data          48  fips_drbg_selftest.o(.constdata)
    sha384_entropyinput                      0x0005821c   Data          32  fips_drbg_selftest.o(.constdata)
    sha384_nonce                             0x0005823c   Data          16  fips_drbg_selftest.o(.constdata)
    sha384_personalizationstring             0x0005824c   Data          32  fips_drbg_selftest.o(.constdata)
    sha384_additionalinput                   0x0005826c   Data          32  fips_drbg_selftest.o(.constdata)
    sha384_int_returnedbits                  0x0005828c   Data          48  fips_drbg_selftest.o(.constdata)
    sha384_entropyinputreseed                0x000582bc   Data          32  fips_drbg_selftest.o(.constdata)
    sha384_additionalinputreseed             0x000582dc   Data          32  fips_drbg_selftest.o(.constdata)
    sha384_additionalinput2                  0x000582fc   Data          32  fips_drbg_selftest.o(.constdata)
    sha384_returnedbits                      0x0005831c   Data          48  fips_drbg_selftest.o(.constdata)
    sha512_pr_entropyinput                   0x0005834c   Data          32  fips_drbg_selftest.o(.constdata)
    sha512_pr_nonce                          0x0005836c   Data          16  fips_drbg_selftest.o(.constdata)
    sha512_pr_personalizationstring          0x0005837c   Data          32  fips_drbg_selftest.o(.constdata)
    sha512_pr_additionalinput                0x0005839c   Data          32  fips_drbg_selftest.o(.constdata)
    sha512_pr_entropyinputpr                 0x000583bc   Data          32  fips_drbg_selftest.o(.constdata)
    sha512_pr_int_returnedbits               0x000583dc   Data          64  fips_drbg_selftest.o(.constdata)
    sha512_pr_additionalinput2               0x0005841c   Data          32  fips_drbg_selftest.o(.constdata)
    sha512_pr_entropyinputpr2                0x0005843c   Data          32  fips_drbg_selftest.o(.constdata)
    sha512_pr_returnedbits                   0x0005845c   Data          64  fips_drbg_selftest.o(.constdata)
    sha512_entropyinput                      0x0005849c   Data          32  fips_drbg_selftest.o(.constdata)
    sha512_nonce                             0x000584bc   Data          16  fips_drbg_selftest.o(.constdata)
    sha512_personalizationstring             0x000584cc   Data          32  fips_drbg_selftest.o(.constdata)
    sha512_additionalinput                   0x000584ec   Data          32  fips_drbg_selftest.o(.constdata)
    sha512_int_returnedbits                  0x0005850c   Data          64  fips_drbg_selftest.o(.constdata)
    sha512_entropyinputreseed                0x0005854c   Data          32  fips_drbg_selftest.o(.constdata)
    sha512_additionalinputreseed             0x0005856c   Data          32  fips_drbg_selftest.o(.constdata)
    sha512_additionalinput2                  0x0005858c   Data          32  fips_drbg_selftest.o(.constdata)
    sha512_returnedbits                      0x000585ac   Data          64  fips_drbg_selftest.o(.constdata)
    hmac_sha1_pr_entropyinput                0x000585ec   Data          16  fips_drbg_selftest.o(.constdata)
    hmac_sha1_pr_personalizationstring       0x000585fc   Data          16  fips_drbg_selftest.o(.constdata)
    hmac_sha1_pr_additionalinput             0x0005860c   Data          16  fips_drbg_selftest.o(.constdata)
    hmac_sha1_pr_entropyinputpr              0x0005861c   Data          16  fips_drbg_selftest.o(.constdata)
    hmac_sha1_pr_int_returnedbits            0x0005862c   Data          20  fips_drbg_selftest.o(.constdata)
    hmac_sha1_pr_additionalinput2            0x00058640   Data          16  fips_drbg_selftest.o(.constdata)
    hmac_sha1_pr_entropyinputpr2             0x00058650   Data          16  fips_drbg_selftest.o(.constdata)
    hmac_sha1_pr_returnedbits                0x00058660   Data          20  fips_drbg_selftest.o(.constdata)
    hmac_sha1_entropyinput                   0x00058674   Data          16  fips_drbg_selftest.o(.constdata)
    hmac_sha1_personalizationstring          0x00058684   Data          16  fips_drbg_selftest.o(.constdata)
    hmac_sha1_additionalinput                0x00058694   Data          16  fips_drbg_selftest.o(.constdata)
    hmac_sha1_int_returnedbits               0x000586a4   Data          20  fips_drbg_selftest.o(.constdata)
    hmac_sha1_entropyinputreseed             0x000586b8   Data          16  fips_drbg_selftest.o(.constdata)
    hmac_sha1_additionalinputreseed          0x000586c8   Data          16  fips_drbg_selftest.o(.constdata)
    hmac_sha1_additionalinput2               0x000586d8   Data          16  fips_drbg_selftest.o(.constdata)
    hmac_sha1_returnedbits                   0x000586e8   Data          20  fips_drbg_selftest.o(.constdata)
    hmac_sha224_pr_entropyinput              0x000586fc   Data          24  fips_drbg_selftest.o(.constdata)
    hmac_sha224_pr_nonce                     0x00058714   Data          12  fips_drbg_selftest.o(.constdata)
    hmac_sha224_pr_personalizationstring     0x00058720   Data          24  fips_drbg_selftest.o(.constdata)
    hmac_sha224_pr_additionalinput           0x00058738   Data          24  fips_drbg_selftest.o(.constdata)
    hmac_sha224_pr_entropyinputpr            0x00058750   Data          24  fips_drbg_selftest.o(.constdata)
    hmac_sha224_pr_int_returnedbits          0x00058768   Data          28  fips_drbg_selftest.o(.constdata)
    hmac_sha224_pr_additionalinput2          0x00058784   Data          24  fips_drbg_selftest.o(.constdata)
    hmac_sha224_pr_entropyinputpr2           0x0005879c   Data          24  fips_drbg_selftest.o(.constdata)
    hmac_sha224_pr_returnedbits              0x000587b4   Data          28  fips_drbg_selftest.o(.constdata)
    hmac_sha224_entropyinput                 0x000587d0   Data          24  fips_drbg_selftest.o(.constdata)
    hmac_sha224_nonce                        0x000587e8   Data          12  fips_drbg_selftest.o(.constdata)
    hmac_sha224_personalizationstring        0x000587f4   Data          24  fips_drbg_selftest.o(.constdata)
    hmac_sha224_additionalinput              0x0005880c   Data          24  fips_drbg_selftest.o(.constdata)
    hmac_sha224_int_returnedbits             0x00058824   Data          28  fips_drbg_selftest.o(.constdata)
    hmac_sha224_entropyinputreseed           0x00058840   Data          24  fips_drbg_selftest.o(.constdata)
    hmac_sha224_additionalinputreseed        0x00058858   Data          24  fips_drbg_selftest.o(.constdata)
    hmac_sha224_additionalinput2             0x00058870   Data          24  fips_drbg_selftest.o(.constdata)
    hmac_sha224_returnedbits                 0x00058888   Data          28  fips_drbg_selftest.o(.constdata)
    hmac_sha256_pr_entropyinput              0x000588a4   Data          32  fips_drbg_selftest.o(.constdata)
    hmac_sha256_pr_nonce                     0x000588c4   Data          16  fips_drbg_selftest.o(.constdata)
    hmac_sha256_pr_personalizationstring     0x000588d4   Data          32  fips_drbg_selftest.o(.constdata)
    hmac_sha256_pr_additionalinput           0x000588f4   Data          32  fips_drbg_selftest.o(.constdata)
    hmac_sha256_pr_entropyinputpr            0x00058914   Data          32  fips_drbg_selftest.o(.constdata)
    hmac_sha256_pr_int_returnedbits          0x00058934   Data          32  fips_drbg_selftest.o(.constdata)
    hmac_sha256_pr_additionalinput2          0x00058954   Data          32  fips_drbg_selftest.o(.constdata)
    hmac_sha256_pr_entropyinputpr2           0x00058974   Data          32  fips_drbg_selftest.o(.constdata)
    hmac_sha256_pr_returnedbits              0x00058994   Data          32  fips_drbg_selftest.o(.constdata)
    hmac_sha256_entropyinput                 0x000589b4   Data          32  fips_drbg_selftest.o(.constdata)
    hmac_sha256_nonce                        0x000589d4   Data          16  fips_drbg_selftest.o(.constdata)
    hmac_sha256_personalizationstring        0x000589e4   Data          32  fips_drbg_selftest.o(.constdata)
    hmac_sha256_additionalinput              0x00058a04   Data          32  fips_drbg_selftest.o(.constdata)
    hmac_sha256_int_returnedbits             0x00058a24   Data          32  fips_drbg_selftest.o(.constdata)
    hmac_sha256_entropyinputreseed           0x00058a44   Data          32  fips_drbg_selftest.o(.constdata)
    hmac_sha256_additionalinputreseed        0x00058a64   Data          32  fips_drbg_selftest.o(.constdata)
    hmac_sha256_additionalinput2             0x00058a84   Data          32  fips_drbg_selftest.o(.constdata)
    hmac_sha256_returnedbits                 0x00058aa4   Data          32  fips_drbg_selftest.o(.constdata)
    hmac_sha384_pr_entropyinput              0x00058ac4   Data          32  fips_drbg_selftest.o(.constdata)
    hmac_sha384_pr_nonce                     0x00058ae4   Data          16  fips_drbg_selftest.o(.constdata)
    hmac_sha384_pr_personalizationstring     0x00058af4   Data          32  fips_drbg_selftest.o(.constdata)
    hmac_sha384_pr_additionalinput           0x00058b14   Data          32  fips_drbg_selftest.o(.constdata)
    hmac_sha384_pr_entropyinputpr            0x00058b34   Data          32  fips_drbg_selftest.o(.constdata)
    hmac_sha384_pr_int_returnedbits          0x00058b54   Data          48  fips_drbg_selftest.o(.constdata)
    hmac_sha384_pr_additionalinput2          0x00058b84   Data          32  fips_drbg_selftest.o(.constdata)
    hmac_sha384_pr_entropyinputpr2           0x00058ba4   Data          32  fips_drbg_selftest.o(.constdata)
    hmac_sha384_pr_returnedbits              0x00058bc4   Data          48  fips_drbg_selftest.o(.constdata)
    hmac_sha384_entropyinput                 0x00058bf4   Data          32  fips_drbg_selftest.o(.constdata)
    hmac_sha384_nonce                        0x00058c14   Data          16  fips_drbg_selftest.o(.constdata)
    hmac_sha384_personalizationstring        0x00058c24   Data          32  fips_drbg_selftest.o(.constdata)
    hmac_sha384_additionalinput              0x00058c44   Data          32  fips_drbg_selftest.o(.constdata)
    hmac_sha384_int_returnedbits             0x00058c64   Data          48  fips_drbg_selftest.o(.constdata)
    hmac_sha384_entropyinputreseed           0x00058c94   Data          32  fips_drbg_selftest.o(.constdata)
    hmac_sha384_additionalinputreseed        0x00058cb4   Data          32  fips_drbg_selftest.o(.constdata)
    hmac_sha384_additionalinput2             0x00058cd4   Data          32  fips_drbg_selftest.o(.constdata)
    hmac_sha384_returnedbits                 0x00058cf4   Data          48  fips_drbg_selftest.o(.constdata)
    hmac_sha512_pr_entropyinput              0x00058d24   Data          32  fips_drbg_selftest.o(.constdata)
    hmac_sha512_pr_nonce                     0x00058d44   Data          16  fips_drbg_selftest.o(.constdata)
    hmac_sha512_pr_personalizationstring     0x00058d54   Data          32  fips_drbg_selftest.o(.constdata)
    hmac_sha512_pr_additionalinput           0x00058d74   Data          32  fips_drbg_selftest.o(.constdata)
    hmac_sha512_pr_entropyinputpr            0x00058d94   Data          32  fips_drbg_selftest.o(.constdata)
    hmac_sha512_pr_int_returnedbits          0x00058db4   Data          64  fips_drbg_selftest.o(.constdata)
    hmac_sha512_pr_additionalinput2          0x00058df4   Data          32  fips_drbg_selftest.o(.constdata)
    hmac_sha512_pr_entropyinputpr2           0x00058e14   Data          32  fips_drbg_selftest.o(.constdata)
    hmac_sha512_pr_returnedbits              0x00058e34   Data          64  fips_drbg_selftest.o(.constdata)
    hmac_sha512_entropyinput                 0x00058e74   Data          32  fips_drbg_selftest.o(.constdata)
    hmac_sha512_nonce                        0x00058e94   Data          16  fips_drbg_selftest.o(.constdata)
    hmac_sha512_personalizationstring        0x00058ea4   Data          32  fips_drbg_selftest.o(.constdata)
    hmac_sha512_additionalinput              0x00058ec4   Data          32  fips_drbg_selftest.o(.constdata)
    hmac_sha512_int_returnedbits             0x00058ee4   Data          64  fips_drbg_selftest.o(.constdata)
    hmac_sha512_entropyinputreseed           0x00058f24   Data          32  fips_drbg_selftest.o(.constdata)
    hmac_sha512_additionalinputreseed        0x00058f44   Data          32  fips_drbg_selftest.o(.constdata)
    hmac_sha512_additionalinput2             0x00058f64   Data          32  fips_drbg_selftest.o(.constdata)
    hmac_sha512_returnedbits                 0x00058f84   Data          64  fips_drbg_selftest.o(.constdata)
    p_256_sha1_pr_entropyinput               0x00058fc4   Data          16  fips_drbg_selftest.o(.constdata)
    p_256_sha1_pr_personalizationstring      0x00058fd4   Data          16  fips_drbg_selftest.o(.constdata)
    p_256_sha1_pr_additionalinput            0x00058fe4   Data          16  fips_drbg_selftest.o(.constdata)
    p_256_sha1_pr_entropyinputpr             0x00058ff4   Data          16  fips_drbg_selftest.o(.constdata)
    p_256_sha1_pr_int_returnedbits           0x00059004   Data          30  fips_drbg_selftest.o(.constdata)
    p_256_sha1_pr_additionalinput2           0x00059022   Data          16  fips_drbg_selftest.o(.constdata)
    p_256_sha1_pr_entropyinputpr2            0x00059032   Data          16  fips_drbg_selftest.o(.constdata)
    p_256_sha1_pr_returnedbits               0x00059042   Data          30  fips_drbg_selftest.o(.constdata)
    p_256_sha1_entropyinput                  0x00059060   Data          16  fips_drbg_selftest.o(.constdata)
    p_256_sha1_personalizationstring         0x00059070   Data          16  fips_drbg_selftest.o(.constdata)
    p_256_sha1_additionalinput               0x00059080   Data          16  fips_drbg_selftest.o(.constdata)
    p_256_sha1_int_returnedbits              0x00059090   Data          30  fips_drbg_selftest.o(.constdata)
    p_256_sha1_entropyinputreseed            0x000590ae   Data          16  fips_drbg_selftest.o(.constdata)
    p_256_sha1_additionalinputreseed         0x000590be   Data          16  fips_drbg_selftest.o(.constdata)
    p_256_sha1_additionalinput2              0x000590ce   Data          16  fips_drbg_selftest.o(.constdata)
    p_256_sha1_returnedbits                  0x000590de   Data          30  fips_drbg_selftest.o(.constdata)
    p_256_sha224_pr_entropyinput             0x000590fc   Data          16  fips_drbg_selftest.o(.constdata)
    p_256_sha224_pr_personalizationstring    0x0005910c   Data          16  fips_drbg_selftest.o(.constdata)
    p_256_sha224_pr_additionalinput          0x0005911c   Data          16  fips_drbg_selftest.o(.constdata)
    p_256_sha224_pr_entropyinputpr           0x0005912c   Data          16  fips_drbg_selftest.o(.constdata)
    p_256_sha224_pr_int_returnedbits         0x0005913c   Data          30  fips_drbg_selftest.o(.constdata)
    p_256_sha224_pr_additionalinput2         0x0005915a   Data          16  fips_drbg_selftest.o(.constdata)
    p_256_sha224_pr_entropyinputpr2          0x0005916a   Data          16  fips_drbg_selftest.o(.constdata)
    p_256_sha224_pr_returnedbits             0x0005917a   Data          30  fips_drbg_selftest.o(.constdata)
    p_256_sha224_entropyinput                0x00059198   Data          16  fips_drbg_selftest.o(.constdata)
    p_256_sha224_personalizationstring       0x000591a8   Data          16  fips_drbg_selftest.o(.constdata)
    p_256_sha224_additionalinput             0x000591b8   Data          16  fips_drbg_selftest.o(.constdata)
    p_256_sha224_int_returnedbits            0x000591c8   Data          30  fips_drbg_selftest.o(.constdata)
    p_256_sha224_entropyinputreseed          0x000591e6   Data          16  fips_drbg_selftest.o(.constdata)
    p_256_sha224_additionalinputreseed       0x000591f6   Data          16  fips_drbg_selftest.o(.constdata)
    p_256_sha224_additionalinput2            0x00059206   Data          16  fips_drbg_selftest.o(.constdata)
    p_256_sha224_returnedbits                0x00059216   Data          30  fips_drbg_selftest.o(.constdata)
    p_256_sha256_pr_entropyinput             0x00059234   Data          16  fips_drbg_selftest.o(.constdata)
    p_256_sha256_pr_personalizationstring    0x00059244   Data          16  fips_drbg_selftest.o(.constdata)
    p_256_sha256_pr_additionalinput          0x00059254   Data          16  fips_drbg_selftest.o(.constdata)
    p_256_sha256_pr_entropyinputpr           0x00059264   Data          16  fips_drbg_selftest.o(.constdata)
    p_256_sha256_pr_int_returnedbits         0x00059274   Data          30  fips_drbg_selftest.o(.constdata)
    p_256_sha256_pr_additionalinput2         0x00059292   Data          16  fips_drbg_selftest.o(.constdata)
    p_256_sha256_pr_entropyinputpr2          0x000592a2   Data          16  fips_drbg_selftest.o(.constdata)
    p_256_sha256_pr_returnedbits             0x000592b2   Data          30  fips_drbg_selftest.o(.constdata)
    p_256_sha256_entropyinput                0x000592d0   Data          16  fips_drbg_selftest.o(.constdata)
    p_256_sha256_personalizationstring       0x000592e0   Data          16  fips_drbg_selftest.o(.constdata)
    p_256_sha256_additionalinput             0x000592f0   Data          16  fips_drbg_selftest.o(.constdata)
    p_256_sha256_int_returnedbits            0x00059300   Data          30  fips_drbg_selftest.o(.constdata)
    p_256_sha256_entropyinputreseed          0x0005931e   Data          16  fips_drbg_selftest.o(.constdata)
    p_256_sha256_additionalinputreseed       0x0005932e   Data          16  fips_drbg_selftest.o(.constdata)
    p_256_sha256_additionalinput2            0x0005933e   Data          16  fips_drbg_selftest.o(.constdata)
    p_256_sha256_returnedbits                0x0005934e   Data          30  fips_drbg_selftest.o(.constdata)
    p_256_sha384_pr_entropyinput             0x0005936c   Data          16  fips_drbg_selftest.o(.constdata)
    p_256_sha384_pr_personalizationstring    0x0005937c   Data          16  fips_drbg_selftest.o(.constdata)
    p_256_sha384_pr_additionalinput          0x0005938c   Data          16  fips_drbg_selftest.o(.constdata)
    p_256_sha384_pr_entropyinputpr           0x0005939c   Data          16  fips_drbg_selftest.o(.constdata)
    p_256_sha384_pr_int_returnedbits         0x000593ac   Data          30  fips_drbg_selftest.o(.constdata)
    p_256_sha384_pr_additionalinput2         0x000593ca   Data          16  fips_drbg_selftest.o(.constdata)
    p_256_sha384_pr_entropyinputpr2          0x000593da   Data          16  fips_drbg_selftest.o(.constdata)
    p_256_sha384_pr_returnedbits             0x000593ea   Data          30  fips_drbg_selftest.o(.constdata)
    p_256_sha384_entropyinput                0x00059408   Data          16  fips_drbg_selftest.o(.constdata)
    p_256_sha384_personalizationstring       0x00059418   Data          16  fips_drbg_selftest.o(.constdata)
    p_256_sha384_additionalinput             0x00059428   Data          16  fips_drbg_selftest.o(.constdata)
    p_256_sha384_int_returnedbits            0x00059438   Data          30  fips_drbg_selftest.o(.constdata)
    p_256_sha384_entropyinputreseed          0x00059456   Data          16  fips_drbg_selftest.o(.constdata)
    p_256_sha384_additionalinputreseed       0x00059466   Data          16  fips_drbg_selftest.o(.constdata)
    p_256_sha384_additionalinput2            0x00059476   Data          16  fips_drbg_selftest.o(.constdata)
    p_256_sha384_returnedbits                0x00059486   Data          30  fips_drbg_selftest.o(.constdata)
    p_256_sha512_pr_entropyinput             0x000594a4   Data          16  fips_drbg_selftest.o(.constdata)
    p_256_sha512_pr_personalizationstring    0x000594b4   Data          16  fips_drbg_selftest.o(.constdata)
    p_256_sha512_pr_additionalinput          0x000594c4   Data          16  fips_drbg_selftest.o(.constdata)
    p_256_sha512_pr_entropyinputpr           0x000594d4   Data          16  fips_drbg_selftest.o(.constdata)
    p_256_sha512_pr_int_returnedbits         0x000594e4   Data          30  fips_drbg_selftest.o(.constdata)
    p_256_sha512_pr_additionalinput2         0x00059502   Data          16  fips_drbg_selftest.o(.constdata)
    p_256_sha512_pr_entropyinputpr2          0x00059512   Data          16  fips_drbg_selftest.o(.constdata)
    p_256_sha512_pr_returnedbits             0x00059522   Data          30  fips_drbg_selftest.o(.constdata)
    p_256_sha512_entropyinput                0x00059540   Data          16  fips_drbg_selftest.o(.constdata)
    p_256_sha512_personalizationstring       0x00059550   Data          16  fips_drbg_selftest.o(.constdata)
    p_256_sha512_additionalinput             0x00059560   Data          16  fips_drbg_selftest.o(.constdata)
    p_256_sha512_int_returnedbits            0x00059570   Data          30  fips_drbg_selftest.o(.constdata)
    p_256_sha512_entropyinputreseed          0x0005958e   Data          16  fips_drbg_selftest.o(.constdata)
    p_256_sha512_additionalinputreseed       0x0005959e   Data          16  fips_drbg_selftest.o(.constdata)
    p_256_sha512_additionalinput2            0x000595ae   Data          16  fips_drbg_selftest.o(.constdata)
    p_256_sha512_returnedbits                0x000595be   Data          30  fips_drbg_selftest.o(.constdata)
    p_384_sha224_pr_entropyinput             0x000595dc   Data          24  fips_drbg_selftest.o(.constdata)
    p_384_sha224_pr_nonce                    0x000595f4   Data          12  fips_drbg_selftest.o(.constdata)
    p_384_sha224_pr_personalizationstring    0x00059600   Data          24  fips_drbg_selftest.o(.constdata)
    p_384_sha224_pr_additionalinput          0x00059618   Data          24  fips_drbg_selftest.o(.constdata)
    p_384_sha224_pr_entropyinputpr           0x00059630   Data          24  fips_drbg_selftest.o(.constdata)
    p_384_sha224_pr_int_returnedbits         0x00059648   Data          46  fips_drbg_selftest.o(.constdata)
    p_384_sha224_pr_additionalinput2         0x00059676   Data          24  fips_drbg_selftest.o(.constdata)
    p_384_sha224_pr_entropyinputpr2          0x0005968e   Data          24  fips_drbg_selftest.o(.constdata)
    p_384_sha224_pr_returnedbits             0x000596a6   Data          46  fips_drbg_selftest.o(.constdata)
    p_384_sha224_entropyinput                0x000596d4   Data          24  fips_drbg_selftest.o(.constdata)
    p_384_sha224_nonce                       0x000596ec   Data          12  fips_drbg_selftest.o(.constdata)
    p_384_sha224_personalizationstring       0x000596f8   Data          24  fips_drbg_selftest.o(.constdata)
    p_384_sha224_additionalinput             0x00059710   Data          24  fips_drbg_selftest.o(.constdata)
    p_384_sha224_int_returnedbits            0x00059728   Data          46  fips_drbg_selftest.o(.constdata)
    p_384_sha224_entropyinputreseed          0x00059756   Data          24  fips_drbg_selftest.o(.constdata)
    p_384_sha224_additionalinputreseed       0x0005976e   Data          24  fips_drbg_selftest.o(.constdata)
    p_384_sha224_additionalinput2            0x00059786   Data          24  fips_drbg_selftest.o(.constdata)
    p_384_sha224_returnedbits                0x0005979e   Data          46  fips_drbg_selftest.o(.constdata)
    p_384_sha256_pr_entropyinput             0x000597cc   Data          24  fips_drbg_selftest.o(.constdata)
    p_384_sha256_pr_nonce                    0x000597e4   Data          12  fips_drbg_selftest.o(.constdata)
    p_384_sha256_pr_personalizationstring    0x000597f0   Data          24  fips_drbg_selftest.o(.constdata)
    p_384_sha256_pr_additionalinput          0x00059808   Data          24  fips_drbg_selftest.o(.constdata)
    p_384_sha256_pr_entropyinputpr           0x00059820   Data          24  fips_drbg_selftest.o(.constdata)
    p_384_sha256_pr_int_returnedbits         0x00059838   Data          46  fips_drbg_selftest.o(.constdata)
    p_384_sha256_pr_additionalinput2         0x00059866   Data          24  fips_drbg_selftest.o(.constdata)
    p_384_sha256_pr_entropyinputpr2          0x0005987e   Data          24  fips_drbg_selftest.o(.constdata)
    p_384_sha256_pr_returnedbits             0x00059896   Data          46  fips_drbg_selftest.o(.constdata)
    p_384_sha256_entropyinput                0x000598c4   Data          24  fips_drbg_selftest.o(.constdata)
    p_384_sha256_nonce                       0x000598dc   Data          12  fips_drbg_selftest.o(.constdata)
    p_384_sha256_personalizationstring       0x000598e8   Data          24  fips_drbg_selftest.o(.constdata)
    p_384_sha256_additionalinput             0x00059900   Data          24  fips_drbg_selftest.o(.constdata)
    p_384_sha256_int_returnedbits            0x00059918   Data          46  fips_drbg_selftest.o(.constdata)
    p_384_sha256_entropyinputreseed          0x00059946   Data          24  fips_drbg_selftest.o(.constdata)
    p_384_sha256_additionalinputreseed       0x0005995e   Data          24  fips_drbg_selftest.o(.constdata)
    p_384_sha256_additionalinput2            0x00059976   Data          24  fips_drbg_selftest.o(.constdata)
    p_384_sha256_returnedbits                0x0005998e   Data          46  fips_drbg_selftest.o(.constdata)
    p_384_sha384_pr_entropyinput             0x000599bc   Data          24  fips_drbg_selftest.o(.constdata)
    p_384_sha384_pr_nonce                    0x000599d4   Data          12  fips_drbg_selftest.o(.constdata)
    p_384_sha384_pr_personalizationstring    0x000599e0   Data          24  fips_drbg_selftest.o(.constdata)
    p_384_sha384_pr_additionalinput          0x000599f8   Data          24  fips_drbg_selftest.o(.constdata)
    p_384_sha384_pr_entropyinputpr           0x00059a10   Data          24  fips_drbg_selftest.o(.constdata)
    p_384_sha384_pr_int_returnedbits         0x00059a28   Data          46  fips_drbg_selftest.o(.constdata)
    p_384_sha384_pr_additionalinput2         0x00059a56   Data          24  fips_drbg_selftest.o(.constdata)
    p_384_sha384_pr_entropyinputpr2          0x00059a6e   Data          24  fips_drbg_selftest.o(.constdata)
    p_384_sha384_pr_returnedbits             0x00059a86   Data          46  fips_drbg_selftest.o(.constdata)
    p_384_sha384_entropyinput                0x00059ab4   Data          24  fips_drbg_selftest.o(.constdata)
    p_384_sha384_nonce                       0x00059acc   Data          12  fips_drbg_selftest.o(.constdata)
    p_384_sha384_personalizationstring       0x00059ad8   Data          24  fips_drbg_selftest.o(.constdata)
    p_384_sha384_additionalinput             0x00059af0   Data          24  fips_drbg_selftest.o(.constdata)
    p_384_sha384_int_returnedbits            0x00059b08   Data          46  fips_drbg_selftest.o(.constdata)
    p_384_sha384_entropyinputreseed          0x00059b36   Data          24  fips_drbg_selftest.o(.constdata)
    p_384_sha384_additionalinputreseed       0x00059b4e   Data          24  fips_drbg_selftest.o(.constdata)
    p_384_sha384_additionalinput2            0x00059b66   Data          24  fips_drbg_selftest.o(.constdata)
    p_384_sha384_returnedbits                0x00059b7e   Data          46  fips_drbg_selftest.o(.constdata)
    p_384_sha512_pr_entropyinput             0x00059bac   Data          24  fips_drbg_selftest.o(.constdata)
    p_384_sha512_pr_nonce                    0x00059bc4   Data          12  fips_drbg_selftest.o(.constdata)
    p_384_sha512_pr_personalizationstring    0x00059bd0   Data          24  fips_drbg_selftest.o(.constdata)
    p_384_sha512_pr_additionalinput          0x00059be8   Data          24  fips_drbg_selftest.o(.constdata)
    p_384_sha512_pr_entropyinputpr           0x00059c00   Data          24  fips_drbg_selftest.o(.constdata)
    p_384_sha512_pr_int_returnedbits         0x00059c18   Data          46  fips_drbg_selftest.o(.constdata)
    p_384_sha512_pr_additionalinput2         0x00059c46   Data          24  fips_drbg_selftest.o(.constdata)
    p_384_sha512_pr_entropyinputpr2          0x00059c5e   Data          24  fips_drbg_selftest.o(.constdata)
    p_384_sha512_pr_returnedbits             0x00059c76   Data          46  fips_drbg_selftest.o(.constdata)
    p_384_sha512_entropyinput                0x00059ca4   Data          24  fips_drbg_selftest.o(.constdata)
    p_384_sha512_nonce                       0x00059cbc   Data          12  fips_drbg_selftest.o(.constdata)
    p_384_sha512_personalizationstring       0x00059cc8   Data          24  fips_drbg_selftest.o(.constdata)
    p_384_sha512_additionalinput             0x00059ce0   Data          24  fips_drbg_selftest.o(.constdata)
    p_384_sha512_int_returnedbits            0x00059cf8   Data          46  fips_drbg_selftest.o(.constdata)
    p_384_sha512_entropyinputreseed          0x00059d26   Data          24  fips_drbg_selftest.o(.constdata)
    p_384_sha512_additionalinputreseed       0x00059d3e   Data          24  fips_drbg_selftest.o(.constdata)
    p_384_sha512_additionalinput2            0x00059d56   Data          24  fips_drbg_selftest.o(.constdata)
    p_384_sha512_returnedbits                0x00059d6e   Data          46  fips_drbg_selftest.o(.constdata)
    p_521_sha256_pr_entropyinput             0x00059d9c   Data          32  fips_drbg_selftest.o(.constdata)
    p_521_sha256_pr_nonce                    0x00059dbc   Data          16  fips_drbg_selftest.o(.constdata)
    p_521_sha256_pr_personalizationstring    0x00059dcc   Data          32  fips_drbg_selftest.o(.constdata)
    p_521_sha256_pr_additionalinput          0x00059dec   Data          32  fips_drbg_selftest.o(.constdata)
    p_521_sha256_pr_entropyinputpr           0x00059e0c   Data          32  fips_drbg_selftest.o(.constdata)
    p_521_sha256_pr_int_returnedbits         0x00059e2c   Data          63  fips_drbg_selftest.o(.constdata)
    p_521_sha256_pr_additionalinput2         0x00059e6b   Data          32  fips_drbg_selftest.o(.constdata)
    p_521_sha256_pr_entropyinputpr2          0x00059e8b   Data          32  fips_drbg_selftest.o(.constdata)
    p_521_sha256_pr_returnedbits             0x00059eab   Data          63  fips_drbg_selftest.o(.constdata)
    p_521_sha256_entropyinput                0x00059eea   Data          32  fips_drbg_selftest.o(.constdata)
    p_521_sha256_nonce                       0x00059f0a   Data          16  fips_drbg_selftest.o(.constdata)
    p_521_sha256_personalizationstring       0x00059f1a   Data          32  fips_drbg_selftest.o(.constdata)
    p_521_sha256_additionalinput             0x00059f3a   Data          32  fips_drbg_selftest.o(.constdata)
    p_521_sha256_int_returnedbits            0x00059f5a   Data          63  fips_drbg_selftest.o(.constdata)
    p_521_sha256_entropyinputreseed          0x00059f99   Data          32  fips_drbg_selftest.o(.constdata)
    p_521_sha256_additionalinputreseed       0x00059fb9   Data          32  fips_drbg_selftest.o(.constdata)
    p_521_sha256_additionalinput2            0x00059fd9   Data          32  fips_drbg_selftest.o(.constdata)
    p_521_sha256_returnedbits                0x00059ff9   Data          63  fips_drbg_selftest.o(.constdata)
    p_521_sha384_pr_entropyinput             0x0005a038   Data          32  fips_drbg_selftest.o(.constdata)
    p_521_sha384_pr_nonce                    0x0005a058   Data          16  fips_drbg_selftest.o(.constdata)
    p_521_sha384_pr_personalizationstring    0x0005a068   Data          32  fips_drbg_selftest.o(.constdata)
    p_521_sha384_pr_additionalinput          0x0005a088   Data          32  fips_drbg_selftest.o(.constdata)
    p_521_sha384_pr_entropyinputpr           0x0005a0a8   Data          32  fips_drbg_selftest.o(.constdata)
    p_521_sha384_pr_int_returnedbits         0x0005a0c8   Data          63  fips_drbg_selftest.o(.constdata)
    p_521_sha384_pr_additionalinput2         0x0005a107   Data          32  fips_drbg_selftest.o(.constdata)
    p_521_sha384_pr_entropyinputpr2          0x0005a127   Data          32  fips_drbg_selftest.o(.constdata)
    p_521_sha384_pr_returnedbits             0x0005a147   Data          63  fips_drbg_selftest.o(.constdata)
    p_521_sha384_entropyinput                0x0005a186   Data          32  fips_drbg_selftest.o(.constdata)
    p_521_sha384_nonce                       0x0005a1a6   Data          16  fips_drbg_selftest.o(.constdata)
    p_521_sha384_personalizationstring       0x0005a1b6   Data          32  fips_drbg_selftest.o(.constdata)
    p_521_sha384_additionalinput             0x0005a1d6   Data          32  fips_drbg_selftest.o(.constdata)
    p_521_sha384_int_returnedbits            0x0005a1f6   Data          63  fips_drbg_selftest.o(.constdata)
    p_521_sha384_entropyinputreseed          0x0005a235   Data          32  fips_drbg_selftest.o(.constdata)
    p_521_sha384_additionalinputreseed       0x0005a255   Data          32  fips_drbg_selftest.o(.constdata)
    p_521_sha384_additionalinput2            0x0005a275   Data          32  fips_drbg_selftest.o(.constdata)
    p_521_sha384_returnedbits                0x0005a295   Data          63  fips_drbg_selftest.o(.constdata)
    p_521_sha512_pr_entropyinput             0x0005a2d4   Data          32  fips_drbg_selftest.o(.constdata)
    p_521_sha512_pr_nonce                    0x0005a2f4   Data          16  fips_drbg_selftest.o(.constdata)
    p_521_sha512_pr_personalizationstring    0x0005a304   Data          32  fips_drbg_selftest.o(.constdata)
    p_521_sha512_pr_additionalinput          0x0005a324   Data          32  fips_drbg_selftest.o(.constdata)
    p_521_sha512_pr_entropyinputpr           0x0005a344   Data          32  fips_drbg_selftest.o(.constdata)
    p_521_sha512_pr_int_returnedbits         0x0005a364   Data          63  fips_drbg_selftest.o(.constdata)
    p_521_sha512_pr_additionalinput2         0x0005a3a3   Data          32  fips_drbg_selftest.o(.constdata)
    p_521_sha512_pr_entropyinputpr2          0x0005a3c3   Data          32  fips_drbg_selftest.o(.constdata)
    p_521_sha512_pr_returnedbits             0x0005a3e3   Data          63  fips_drbg_selftest.o(.constdata)
    p_521_sha512_entropyinput                0x0005a422   Data          32  fips_drbg_selftest.o(.constdata)
    p_521_sha512_nonce                       0x0005a442   Data          16  fips_drbg_selftest.o(.constdata)
    p_521_sha512_personalizationstring       0x0005a452   Data          32  fips_drbg_selftest.o(.constdata)
    p_521_sha512_additionalinput             0x0005a472   Data          32  fips_drbg_selftest.o(.constdata)
    p_521_sha512_int_returnedbits            0x0005a492   Data          63  fips_drbg_selftest.o(.constdata)
    p_521_sha512_entropyinputreseed          0x0005a4d1   Data          32  fips_drbg_selftest.o(.constdata)
    p_521_sha512_additionalinputreseed       0x0005a4f1   Data          32  fips_drbg_selftest.o(.constdata)
    p_521_sha512_additionalinput2            0x0005a511   Data          32  fips_drbg_selftest.o(.constdata)
    p_521_sha512_returnedbits                0x0005a531   Data          63  fips_drbg_selftest.o(.constdata)
    .constdata                               0x0005a570   Section     1449  fips_rsa_selftest.o(.constdata)
    rsa_test_2048_e                          0x0005a570   Data           3  fips_rsa_selftest.o(.constdata)
    rsa_test_2048_n                          0x0005a573   Data         256  fips_rsa_selftest.o(.constdata)
    rsa_test_2048_d                          0x0005a673   Data         256  fips_rsa_selftest.o(.constdata)
    rsa_test_2048_p                          0x0005a773   Data         128  fips_rsa_selftest.o(.constdata)
    rsa_test_2048_q                          0x0005a7f3   Data         128  fips_rsa_selftest.o(.constdata)
    rsa_test_2048_dmp1                       0x0005a873   Data         128  fips_rsa_selftest.o(.constdata)
    rsa_test_2048_dmq1                       0x0005a8f3   Data         128  fips_rsa_selftest.o(.constdata)
    rsa_test_2048_iqmp                       0x0005a973   Data         128  fips_rsa_selftest.o(.constdata)
    kat_tbs                                  0x0005a9f3   Data          38  fips_rsa_selftest.o(.constdata)
    kat_RSA_PSS_SHA256                       0x0005aa19   Data         256  fips_rsa_selftest.o(.constdata)
    .constdata                               0x0005ab19   Section      240  fips_sha1_selftest.o(.constdata)
    test                                     0x0005ab19   Data         180  fips_sha1_selftest.o(.constdata)
    ret                                      0x0005abcd   Data          60  fips_sha1_selftest.o(.constdata)
    .constdata                               0x0005ac09   Section      507  fips_aes_selftest.o(.constdata)
    ccm_nonce                                0x0005ac09   Data           7  fips_aes_selftest.o(.constdata)
    tests                                    0x0005ac10   Data          48  fips_aes_selftest.o(.constdata)
    ccm_key                                  0x0005ac40   Data          24  fips_aes_selftest.o(.constdata)
    ccm_adata                                0x0005ac58   Data          32  fips_aes_selftest.o(.constdata)
    ccm_pt                                   0x0005ac78   Data          24  fips_aes_selftest.o(.constdata)
    ccm_ct                                   0x0005ac90   Data          24  fips_aes_selftest.o(.constdata)
    ccm_tag                                  0x0005aca8   Data          16  fips_aes_selftest.o(.constdata)
    gcm_key                                  0x0005acb8   Data          32  fips_aes_selftest.o(.constdata)
    gcm_iv                                   0x0005acd8   Data          12  fips_aes_selftest.o(.constdata)
    gcm_pt                                   0x0005ace4   Data          16  fips_aes_selftest.o(.constdata)
    gcm_aad                                  0x0005acf4   Data          16  fips_aes_selftest.o(.constdata)
    gcm_ct                                   0x0005ad04   Data          16  fips_aes_selftest.o(.constdata)
    gcm_tag                                  0x0005ad14   Data          16  fips_aes_selftest.o(.constdata)
    XTS_128_key                              0x0005ad24   Data          32  fips_aes_selftest.o(.constdata)
    XTS_128_i                                0x0005ad44   Data          16  fips_aes_selftest.o(.constdata)
    XTS_128_pt                               0x0005ad54   Data          16  fips_aes_selftest.o(.constdata)
    XTS_128_ct                               0x0005ad64   Data          16  fips_aes_selftest.o(.constdata)
    XTS_256_key                              0x0005ad74   Data          64  fips_aes_selftest.o(.constdata)
    XTS_256_i                                0x0005adb4   Data          16  fips_aes_selftest.o(.constdata)
    XTS_256_pt                               0x0005adc4   Data          32  fips_aes_selftest.o(.constdata)
    XTS_256_ct                               0x0005ade4   Data          32  fips_aes_selftest.o(.constdata)
    .constdata                               0x0005ae04   Section       80  fips_des_selftest.o(.constdata)
    tests3                                   0x0005ae04   Data          80  fips_des_selftest.o(.constdata)
    .constdata                               0x0005ae54   Section       40  _printf_hex_int_ll_ptr.o(.constdata)
    uc_hextab                                0x0005ae54   Data          20  _printf_hex_int_ll_ptr.o(.constdata)
    lc_hextab                                0x0005ae68   Data          20  _printf_hex_int_ll_ptr.o(.constdata)
    .constdata                               0x0005ae7c   Section       17  __printf_flags_ss_wp.o(.constdata)
    maptable                                 0x0005ae7c   Data          17  __printf_flags_ss_wp.o(.constdata)
    .constdata                               0x0005ae8d   Section        4  sys_io.o(.constdata)
    .constdata                               0x0005ae91   Section        4  sys_io.o(.constdata)
    .constdata                               0x0005ae95   Section        4  sys_io.o(.constdata)
    .constdata                               0x0005ae9a   Section     4096  bn_prime.o(.constdata)
    primes                                   0x0005ae9a   Data        4096  bn_prime.o(.constdata)
    .constdata                               0x0005be9c   Section      248  tz_key_wrapping.o(.constdata)
    __func__                                 0x0005be9c   Data          14  tz_key_wrapping.o(.constdata)
    __func__                                 0x0005beaa   Data          12  tz_key_wrapping.o(.constdata)
    .constdata                               0x0005bf94   Section     6156  tz_ta_sstorage_service.o(.constdata)
    DEXOPT_NAME_HASH                         0x0005d04f   Data          32  tz_ta_sstorage_service.o(.constdata)
    DEX2OAT_NAME_HASH                        0x0005d06f   Data          32  tz_ta_sstorage_service.o(.constdata)
    SSPM_NAME_HASH                           0x0005d08f   Data          32  tz_ta_sstorage_service.o(.constdata)
    LSM_NATIVE_NAME_HASH                     0x0005d0af   Data          32  tz_ta_sstorage_service.o(.constdata)
    __func__                                 0x0005d0cf   Data          24  tz_ta_sstorage_service.o(.constdata)
    __func__                                 0x0005d0e7   Data          25  tz_ta_sstorage_service.o(.constdata)
    __func__                                 0x0005d100   Data          23  tz_ta_sstorage_service.o(.constdata)
    __func__                                 0x0005d117   Data          26  tz_ta_sstorage_service.o(.constdata)
    __func__                                 0x0005d131   Data          17  tz_ta_sstorage_service.o(.constdata)
    __func__                                 0x0005d142   Data          17  tz_ta_sstorage_service.o(.constdata)
    __func__                                 0x0005d153   Data          27  tz_ta_sstorage_service.o(.constdata)
    __func__                                 0x0005d16e   Data          19  tz_ta_sstorage_service.o(.constdata)
    __func__                                 0x0005d181   Data          19  tz_ta_sstorage_service.o(.constdata)
    __func__                                 0x0005d194   Data          25  tz_ta_sstorage_service.o(.constdata)
    __func__                                 0x0005d1ad   Data          25  tz_ta_sstorage_service.o(.constdata)
    __func__                                 0x0005d1c6   Data          20  tz_ta_sstorage_service.o(.constdata)
    id_buf_offs_zero                         0x0005d1da   Data         128  tz_ta_sstorage_service.o(.constdata)
    __func__                                 0x0005d25a   Data          27  tz_ta_sstorage_service.o(.constdata)
    __func__                                 0x0005d275   Data          21  tz_ta_sstorage_service.o(.constdata)
    __func__                                 0x0005d28a   Data          21  tz_ta_sstorage_service.o(.constdata)
    __func__                                 0x0005d29f   Data          23  tz_ta_sstorage_service.o(.constdata)
    __func__                                 0x0005d2b6   Data          19  tz_ta_sstorage_service.o(.constdata)
    __func__                                 0x0005d2c9   Data          23  tz_ta_sstorage_service.o(.constdata)
    __func__                                 0x0005d2e0   Data          13  tz_ta_sstorage_service.o(.constdata)
    __func__                                 0x0005d2ed   Data          19  tz_ta_sstorage_service.o(.constdata)
    .constdata                               0x0005d7a0   Section      243  ss_key_encryption.o(.constdata)
    __func__                                 0x0005d7a0   Data          11  ss_key_encryption.o(.constdata)
    .constdata                               0x0005d894   Section      456  ss_key_management_lsm.o(.constdata)
    __func__                                 0x0005d894   Data          38  ss_key_management_lsm.o(.constdata)
    __func__                                 0x0005d8ba   Data          16  ss_key_management_lsm.o(.constdata)
    __func__                                 0x0005d8ca   Data          16  ss_key_management_lsm.o(.constdata)
    .constdata                               0x0005da5c   Section       86  ss_key_management_helper_functions.o(.constdata)
    __func__                                 0x0005da5c   Data          19  ss_key_management_helper_functions.o(.constdata)
    .constdata                               0x0005dab4   Section      234  tz_ta_sstorage_secdrv_interface.o(.constdata)
    __func__                                 0x0005dab4   Data           8  tz_ta_sstorage_secdrv_interface.o(.constdata)
    __func__                                 0x0005dadc   Data          12  tz_ta_sstorage_secdrv_interface.o(.constdata)
    __func__                                 0x0005dae8   Data          14  tz_ta_sstorage_secdrv_interface.o(.constdata)
    .constdata                               0x0005dba0   Section     1004  ss_memory_internal.o(.constdata)
    __func__                                 0x0005dba0   Data          13  ss_memory_internal.o(.constdata)
    __func__                                 0x0005dbad   Data          15  ss_memory_internal.o(.constdata)
    __func__                                 0x0005dbbc   Data          17  ss_memory_internal.o(.constdata)
    __func__                                 0x0005dbcd   Data          19  ss_memory_internal.o(.constdata)
    .constdata                               0x0005df8c   Section     6029  task.o(.constdata)
    SS_SYSTEM_SERVER                         0x0005df8c   Data          14  task.o(.constdata)
    __func__                                 0x0005df9a   Data          14  task.o(.constdata)
    __func__                                 0x0005dfa8   Data          14  task.o(.constdata)
    __func__                                 0x0005dfb6   Data          14  task.o(.constdata)
    __func__                                 0x0005dfc4   Data          15  task.o(.constdata)
    __func__                                 0x0005dfd3   Data          13  task.o(.constdata)
    __func__                                 0x0005dfe0   Data          10  task.o(.constdata)
    __func__                                 0x0005dfea   Data           9  task.o(.constdata)
    __func__                                 0x0005dff3   Data          20  task.o(.constdata)
    __func__                                 0x0005e007   Data          18  task.o(.constdata)
    __func__                                 0x0005e019   Data          16  task.o(.constdata)
    __func__                                 0x0005e029   Data          12  task.o(.constdata)
    __func__                                 0x0005e035   Data          13  task.o(.constdata)
    __func__                                 0x0005e042   Data          19  task.o(.constdata)
    __func__                                 0x0005e055   Data          14  task.o(.constdata)
    .constdata                               0x0005f71c   Section      368  ss_parse_ustack.o(.constdata)
    __func__                                 0x0005f71c   Data          17  ss_parse_ustack.o(.constdata)
    __func__                                 0x0005f72d   Data          22  ss_parse_ustack.o(.constdata)
    __func__                                 0x0005f743   Data          10  ss_parse_ustack.o(.constdata)
    .constdata                               0x0005f88c   Section      832  ss_config.o(.constdata)
    __func__                                 0x0005f88c   Data          14  ss_config.o(.constdata)
    __func__                                 0x0005f89a   Data          11  ss_config.o(.constdata)
    .constdata                               0x0005fbcc   Section      307  gaf.o(.constdata)
    __func__                                 0x0005fbcc   Data          10  gaf.o(.constdata)
    __func__                                 0x0005fbd6   Data          19  gaf.o(.constdata)
    .constdata                               0x0005fd00   Section      588  dmp.o(.constdata)
    __func__                                 0x0005fd00   Data          20  dmp.o(.constdata)
    __func__                                 0x0005fd14   Data          23  dmp.o(.constdata)
    __func__                                 0x0005fd2b   Data          15  dmp.o(.constdata)
    __func__                                 0x0005fd3a   Data          19  dmp.o(.constdata)
    __func__                                 0x0005fd4d   Data          25  dmp.o(.constdata)
    .constdata                               0x0005ff4c   Section       77  tz_prng.o(.constdata)
    __func__                                 0x0005ff4c   Data           8  tz_prng.o(.constdata)
    .constdata                               0x0005ff9c   Section     2170  selftest.o(.constdata)
    __func__                                 0x000604f0   Data          14  selftest.o(.constdata)
    __func__                                 0x000604fe   Data          13  selftest.o(.constdata)
    .constdata                               0x00060818   Section     1264  ss_mapped_regions_registry.o(.constdata)
    __func__                                 0x00060818   Data          22  ss_mapped_regions_registry.o(.constdata)
    __func__                                 0x0006082e   Data          20  ss_mapped_regions_registry.o(.constdata)
    __func__                                 0x00060842   Data          22  ss_mapped_regions_registry.o(.constdata)
    __func__                                 0x00060858   Data          24  ss_mapped_regions_registry.o(.constdata)
    .constdata                               0x00060d08   Section      180  ECDH.o(.constdata)
    __func__                                 0x00060d08   Data          28  ECDH.o(.constdata)
    .constdata                               0x00060dbc   Section      356  ss_ta_asymmetric_crypto_api.o(.constdata)
    __func__                                 0x00060dbc   Data          19  ss_ta_asymmetric_crypto_api.o(.constdata)
    __func__                                 0x00060dcf   Data          19  ss_ta_asymmetric_crypto_api.o(.constdata)
    __func__                                 0x00060de2   Data          23  ss_ta_asymmetric_crypto_api.o(.constdata)
    __func__                                 0x00060df9   Data          20  ss_ta_asymmetric_crypto_api.o(.constdata)
    __func__                                 0x00060e0d   Data          20  ss_ta_asymmetric_crypto_api.o(.constdata)
    __func__                                 0x00060e21   Data          26  ss_ta_asymmetric_crypto_api.o(.constdata)
    __func__                                 0x00060e3b   Data          26  ss_ta_asymmetric_crypto_api.o(.constdata)
    __func__                                 0x00060e55   Data          29  ss_ta_asymmetric_crypto_api.o(.constdata)
    .constdata                               0x00060f20   Section      160  dsa_gen.o(.constdata)
    ggen                                     0x00060f20   Data           4  dsa_gen.o(.constdata)
    .constdata                               0x00060fc0   Section      157  dsa_asn1.o(.constdata)
    .constdata                               0x00061060   Section      156  dsa_lib.o(.constdata)
    .constdata                               0x000610fc   Section      157  dsa_ossl.o(.constdata)
    .constdata                               0x0006119c   Section      141  vmem_64.o(.constdata)
    __func__                                 0x0006119c   Data          21  vmem_64.o(.constdata)
    __func__                                 0x000611b1   Data          11  vmem_64.o(.constdata)
    __func__                                 0x000611bc   Data          18  vmem_64.o(.constdata)
    .constdata                               0x0006122c   Section      166  kernel_stack_64.o(.constdata)
    __func__                                 0x0006122c   Data          19  kernel_stack_64.o(.constdata)
    .constdata                               0x000612d4   Section      133  pd_rand.o(.constdata)
    .constdata                               0x0006135c   Section      128  tasn_dec.o(.constdata)
    tag2bit                                  0x0006135c   Data         128  tasn_dec.o(.constdata)
    .constdata                               0x000613dc   Section      122  a_dup.o(.constdata)
    .constdata                               0x00061458   Section      128  tasn_enc.o(.constdata)
    .constdata                               0x000614d8   Section      128  asn1_lib.o(.constdata)
    .constdata                               0x00061558   Section      128  tasn_new.o(.constdata)
    .constdata                               0x000615d8   Section      120  ex_data.o(.constdata)
    .constdata                               0x00061650   Section      140  mem.o(.constdata)
    __FUNCTION__                             0x00061650   Data          21  mem.o(.constdata)
    .constdata                               0x000616dc   Section      148  rsa_sign.o(.constdata)
    __FUNCTION__                             0x000616dc   Data           9  rsa_sign.o(.constdata)
    __FUNCTION__                             0x000616e5   Data          15  rsa_sign.o(.constdata)
    .constdata                               0x00061770   Section      124  rsa_lib.o(.constdata)
    .constdata                               0x000617ec   Section      148  bn_ctx.o(.constdata)
    .constdata                               0x00061880   Section      180  bn_exp.o(.constdata)
    __FUNCTION__                             0x00061880   Data          31  bn_exp.o(.constdata)
    .constdata                               0x00061934   Section      148  bn_mont.o(.constdata)
    .constdata                               0x000619c8   Section      156  bn_rand.o(.constdata)
    __FUNCTION__                             0x000619c8   Data           7  bn_rand.o(.constdata)
    .constdata                               0x00061a64   Section      428  bn_lib.o(.constdata)
    data_one                                 0x00061a64   Data           4  bn_lib.o(.constdata)
    bits                                     0x00061a68   Data         256  bn_lib.o(.constdata)
    __FUNCTION__                             0x00061b68   Data          19  bn_lib.o(.constdata)
    .constdata                               0x00061c10   Section      168  ec_key.o(.constdata)
    __FUNCTION__                             0x00061c10   Data          17  ec_key.o(.constdata)
    .constdata                               0x00061cb8   Section      200  ec_lib.o(.constdata)
    __FUNCTION__                             0x00061cb8   Data          25  ec_lib.o(.constdata)
    __FUNCTION__                             0x00061cd1   Data          25  ec_lib.o(.constdata)
    .constdata                               0x00061d80   Section      148  hmac.o(.constdata)
    .constdata                               0x00061e14   Section      182  gcm128.o(.constdata)
    .constdata                               0x00061ecc   Section      152  rsa_gen.o(.constdata)
    .constdata                               0x00061f64   Section      172  sha512.o(.constdata)
    __FUNCTION__                             0x00061f64   Data          12  sha512.o(.constdata)
    __FUNCTION__                             0x00061f70   Data          12  sha512.o(.constdata)
    .constdata                               0x00062010   Section      172  sha256.o(.constdata)
    __FUNCTION__                             0x00062010   Data          12  sha256.o(.constdata)
    __FUNCTION__                             0x0006201c   Data          12  sha256.o(.constdata)
    .constdata                               0x000620bc   Section      168  fips_md.o(.constdata)
    __FUNCTION__                             0x000620bc   Data          20  fips_md.o(.constdata)
    .constdata                               0x00062164   Section      124  lhash.o(.constdata)
    .constdata                               0x000621e0   Section      128  a_object.o(.constdata)
    .constdata                               0x00062260   Section      125  tasn_utl.o(.constdata)
    .constdata                               0x000622e0   Section      124  a_int.o(.constdata)
    .constdata                               0x0006235c   Section      128  a_bitstr.o(.constdata)
    .constdata                               0x000623dc   Section      124  stack.o(.constdata)
    .constdata                               0x00062458   Section      128  buffer.o(.constdata)
    .constdata                               0x000624d8   Section    16840  obj_dat.o(.constdata)
    lvalues                                  0x000624d8   Data        5980  obj_dat.o(.constdata)
    sn_objs                                  0x00063c34   Data        3652  obj_dat.o(.constdata)
    ln_objs                                  0x00064a78   Data        3652  obj_dat.o(.constdata)
    obj_objs                                 0x000658bc   Data        3428  obj_dat.o(.constdata)
    .constdata                               0x000666a0   Section      124  b_print.o(.constdata)
    .constdata                               0x0006671c   Section      148  rand_lib.o(.constdata)
    __FUNCTION__                             0x0006671c   Data          18  rand_lib.o(.constdata)
    .constdata                               0x000667b0   Section      148  bn_recp.o(.constdata)
    .constdata                               0x00066844   Section      149  bn_blind.o(.constdata)
    .constdata                               0x000668dc   Section      172  ec_mult.o(.constdata)
    __FUNCTION__                             0x000668dc   Data          23  ec_mult.o(.constdata)
    .constdata                               0x00066988   Section     4348  ec_curve.o(.constdata)
    _EC_NIST_PRIME_192                       0x00066988   Data         180  ec_curve.o(.constdata)
    _EC_NIST_PRIME_224                       0x00066a3c   Data         204  ec_curve.o(.constdata)
    _EC_NIST_PRIME_384                       0x00066b08   Data         324  ec_curve.o(.constdata)
    _EC_NIST_PRIME_521                       0x00066c4c   Data         432  ec_curve.o(.constdata)
    _EC_X9_62_PRIME_192V2                    0x00066dfc   Data         180  ec_curve.o(.constdata)
    _EC_X9_62_PRIME_192V3                    0x00066eb0   Data         180  ec_curve.o(.constdata)
    _EC_X9_62_PRIME_239V1                    0x00066f64   Data         216  ec_curve.o(.constdata)
    _EC_X9_62_PRIME_239V2                    0x0006703c   Data         216  ec_curve.o(.constdata)
    _EC_X9_62_PRIME_239V3                    0x00067114   Data         216  ec_curve.o(.constdata)
    _EC_X9_62_PRIME_256V1                    0x000671ec   Data         228  ec_curve.o(.constdata)
    _EC_SECG_PRIME_112R1                     0x000672d0   Data         120  ec_curve.o(.constdata)
    _EC_SECG_PRIME_112R2                     0x00067348   Data         120  ec_curve.o(.constdata)
    _EC_SECG_PRIME_128R1                     0x000673c0   Data         132  ec_curve.o(.constdata)
    _EC_SECG_PRIME_128R2                     0x00067444   Data         132  ec_curve.o(.constdata)
    _EC_SECG_PRIME_160K1                     0x000674c8   Data         144  ec_curve.o(.constdata)
    _EC_SECG_PRIME_160R1                     0x00067558   Data         164  ec_curve.o(.constdata)
    _EC_SECG_PRIME_160R2                     0x000675fc   Data         164  ec_curve.o(.constdata)
    _EC_SECG_PRIME_192K1                     0x000676a0   Data         160  ec_curve.o(.constdata)
    _EC_SECG_PRIME_224K1                     0x00067740   Data         192  ec_curve.o(.constdata)
    _EC_SECG_PRIME_256K1                     0x00067800   Data         208  ec_curve.o(.constdata)
    _EC_WTLS_8                               0x000678d0   Data         108  ec_curve.o(.constdata)
    _EC_WTLS_9                               0x0006793c   Data         144  ec_curve.o(.constdata)
    _EC_WTLS_12                              0x000679cc   Data         184  ec_curve.o(.constdata)
    .constdata                               0x00067a84   Section      248  rsa_eay.o(.constdata)
    __FUNCTION__                             0x00067a84   Data          23  rsa_eay.o(.constdata)
    __FUNCTION__                             0x00067a9b   Data          24  rsa_eay.o(.constdata)
    __FUNCTION__                             0x00067ab3   Data          24  rsa_eay.o(.constdata)
    __FUNCTION__                             0x00067acb   Data          23  rsa_eay.o(.constdata)
    .constdata                               0x00067b7c   Section      172  fips_drbg_lib.o(.constdata)
    __FUNCTION__                             0x00067b7c   Data          15  fips_drbg_lib.o(.constdata)
    .constdata                               0x00067c28   Section      192  fips_rand.o(.constdata)
    __FUNCTION__                             0x00067c28   Data          21  fips_rand.o(.constdata)
    __FUNCTION__                             0x00067c3d   Data          19  fips_rand.o(.constdata)
    .constdata                               0x00067ce8   Section      140  fips.o(.constdata)
    .constdata                               0x00067d74   Section      172  fips_post.o(.constdata)
    str1                                     0x00067d74   Data          21  fips_post.o(.constdata)
    .constdata                               0x00067e20   Section       32  bn_kron.o(.constdata)
    tab                                      0x00067e20   Data          32  bn_kron.o(.constdata)
    .constdata                               0x00067e40   Section      127  o_names.o(.constdata)
    .constdata                               0x00067ec0   Section      128  obj_lib.o(.constdata)
    .constdata                               0x00067f40   Section      151  ech_ossl.o(.constdata)
    .constdata                               0x00067fd8   Section      152  rsa_oaep.o(.constdata)
    .constdata                               0x00068070   Section      268  fips_enc.o(.constdata)
    __FUNCTION__                             0x00068070   Data          24  fips_enc.o(.constdata)
    .constdata                               0x0006817c   Section      327  fips_ecdh_selftest.o(.constdata)
    p224_qcavsx                              0x0006817c   Data          28  fips_ecdh_selftest.o(.constdata)
    p224_qcavsy                              0x00068198   Data          28  fips_ecdh_selftest.o(.constdata)
    p224_qiutx                               0x000681b4   Data          28  fips_ecdh_selftest.o(.constdata)
    p224_qiuty                               0x000681d0   Data          28  fips_ecdh_selftest.o(.constdata)
    p224_qiutd                               0x000681ec   Data          28  fips_ecdh_selftest.o(.constdata)
    p224_ziut                                0x00068208   Data          28  fips_ecdh_selftest.o(.constdata)
    .constdata                               0x000682c4   Section      236  fips_ecdsa_sign.o(.constdata)
    __FUNCTION__                             0x000682c4   Data          20  fips_ecdsa_sign.o(.constdata)
    __FUNCTION__                             0x000682d8   Data          22  fips_ecdsa_sign.o(.constdata)
    __FUNCTION__                             0x000682ee   Data          18  fips_ecdsa_sign.o(.constdata)
    __FUNCTION__                             0x00068300   Data          16  fips_ecdsa_sign.o(.constdata)
    .constdata                               0x000683b0   Section      372  fips_hmac_selftest.o(.constdata)
    hmac_kat_key                             0x000683b0   Data          20  fips_hmac_selftest.o(.constdata)
    hmac_kat_data                            0x000683c4   Data           9  fips_hmac_selftest.o(.constdata)
    vector                                   0x000683d0   Data         340  fips_hmac_selftest.o(.constdata)
    .constdata                               0x00068524   Section      480  fips_drbg_ec.o(.constdata)
    __FUNCTION__                             0x00068524   Data           8  fips_drbg_ec.o(.constdata)
    p_256_qx                                 0x0006852c   Data          32  fips_drbg_ec.o(.constdata)
    p_256_qy                                 0x0006854c   Data          32  fips_drbg_ec.o(.constdata)
    p_384_qx                                 0x0006856c   Data          48  fips_drbg_ec.o(.constdata)
    p_384_qy                                 0x0006859c   Data          48  fips_drbg_ec.o(.constdata)
    p_521_qx                                 0x000685cc   Data          66  fips_drbg_ec.o(.constdata)
    p_521_qy                                 0x0006860e   Data          66  fips_drbg_ec.o(.constdata)
    __FUNCTION__                             0x00068650   Data          22  fips_drbg_ec.o(.constdata)
    .constdata                               0x00068704   Section      179  fips_drbg_hmac.o(.constdata)
    __FUNCTION__                             0x00068704   Data          24  fips_drbg_hmac.o(.constdata)
    .constdata                               0x000687b8   Section      188  fips_drbg_hash.o(.constdata)
    __FUNCTION__                             0x000687b8   Data           8  fips_drbg_hash.o(.constdata)
    __FUNCTION__                             0x000687c0   Data          24  fips_drbg_hash.o(.constdata)
    .constdata                               0x00068874   Section      440  fips_rsa_sign.o(.constdata)
    sha1_bin                                 0x00068874   Data          15  fips_rsa_sign.o(.constdata)
    sha224_bin                               0x00068883   Data          19  fips_rsa_sign.o(.constdata)
    sha256_bin                               0x00068896   Data          19  fips_rsa_sign.o(.constdata)
    sha384_bin                               0x000688a9   Data          19  fips_rsa_sign.o(.constdata)
    sha512_bin                               0x000688bc   Data          19  fips_rsa_sign.o(.constdata)
    sha1_nn_bin                              0x000688cf   Data          13  fips_rsa_sign.o(.constdata)
    sha224_nn_bin                            0x000688dc   Data          17  fips_rsa_sign.o(.constdata)
    sha256_nn_bin                            0x000688ed   Data          17  fips_rsa_sign.o(.constdata)
    sha384_nn_bin                            0x000688fe   Data          17  fips_rsa_sign.o(.constdata)
    sha512_nn_bin                            0x0006890f   Data          17  fips_rsa_sign.o(.constdata)
    __FUNCTION__                             0x00068920   Data          18  fips_rsa_sign.o(.constdata)
    __FUNCTION__                             0x00068932   Data          21  fips_rsa_sign.o(.constdata)
    __FUNCTION__                             0x00068947   Data          20  fips_rsa_sign.o(.constdata)
    __FUNCTION__                             0x0006895b   Data          23  fips_rsa_sign.o(.constdata)
    __FUNCTION__                             0x00068972   Data          14  fips_rsa_sign.o(.constdata)
    __FUNCTION__                             0x00068980   Data          16  fips_rsa_sign.o(.constdata)
    .constdata                               0x00068a2c   Section      704  fips_cmac_selftest.o(.constdata)
    vector                                   0x00068a2c   Data         704  fips_cmac_selftest.o(.constdata)
    .constdata                               0x00068cec   Section      236  cmac.o(.constdata)
    __FUNCTION__                             0x00068cec   Data          22  cmac.o(.constdata)
    zero_iv                                  0x00068d02   Data          32  cmac.o(.constdata)
    __FUNCTION__                             0x00068d22   Data          15  cmac.o(.constdata)
    __FUNCTION__                             0x00068d31   Data          16  cmac.o(.constdata)
    .constdata                               0x00068dd8   Section      200  e_aes.o(.constdata)
    __FUNCTION__                             0x00068dd8   Data          16  e_aes.o(.constdata)
    __FUNCTION__                             0x00068de8   Data          19  e_aes.o(.constdata)
    __FUNCTION__                             0x00068dfb   Data          15  e_aes.o(.constdata)
    .constdata                               0x00068ea0   Section      160  rsa_pss.o(.constdata)
    zeroes                                   0x00068ea0   Data           8  rsa_pss.o(.constdata)
    .constdata                               0x00068f40   Section      152  fips_rsa_lib.o(.constdata)
    .constdata                               0x00068fd8   Section     2496  set_key.o(.constdata)
    odd_parity                               0x00068fd8   Data         256  set_key.o(.constdata)
    weak_keys                                0x000690d8   Data         128  set_key.o(.constdata)
    des_skb                                  0x00069158   Data        2048  set_key.o(.constdata)
    shifts2                                  0x00069958   Data          64  set_key.o(.constdata)
    .constdata                               0x00069998   Section     2048  des_enc.o(.constdata)
    .constdata                               0x0006a198   Section      149  ecp_smpl.o(.constdata)
    .constdata                               0x0006a230   Section        4  xts128.o(.constdata)
    .constdata                               0x0006a234   Section        4  ctr128.o(.constdata)
    .constdata                               0x0006a238   Section        8  _printf_wctomb.o(.constdata)
    initial_mbstate                          0x0006a238   Data           8  _printf_wctomb.o(.constdata)
    locale$$data                             0x0006a240   Section      272  lc_ctype_c.o(locale$$data)
    __lcctype_c_name                         0x0006a244   Data           2  lc_ctype_c.o(locale$$data)
    __lcctype_c_start                        0x0006a24c   Data           0  lc_ctype_c.o(locale$$data)
    .constdata                               0x0006a350   Section      148  bigflt0.o(.constdata)
    __lcctype_c_end                          0x0006a350   Data           0  lc_ctype_c.o(locale$$data)
    tenpwrs_x                                0x0006a350   Data          60  bigflt0.o(.constdata)
    tenpwrs_i                                0x0006a38c   Data          64  bigflt0.o(.constdata)
    locale$$data                             0x0006a3e4   Section       28  lc_numeric_c.o(locale$$data)
    __lcnum_c_name                           0x0006a3e8   Data           2  lc_numeric_c.o(locale$$data)
    __lcnum_c_start                          0x0006a3f0   Data           0  lc_numeric_c.o(locale$$data)
    __lcnum_c_point                          0x0006a3fc   Data           0  lc_numeric_c.o(locale$$data)
    __lcnum_c_thousands                      0x0006a3fe   Data           0  lc_numeric_c.o(locale$$data)
    __lcnum_c_grouping                       0x0006a3ff   Data           0  lc_numeric_c.o(locale$$data)
    .constdata                               0x0006a400   Section      128  ss_SKEIN.o(.constdata)
    SKEIN_256_IV_128                         0x0006a400   Data          32  ss_SKEIN.o(.constdata)
    __lcnum_c_end                            0x0006a400   Data           0  lc_numeric_c.o(locale$$data)
    SKEIN_256_IV_160                         0x0006a420   Data          32  ss_SKEIN.o(.constdata)
    SKEIN_256_IV_224                         0x0006a440   Data          32  ss_SKEIN.o(.constdata)
    SKEIN_256_IV_256                         0x0006a460   Data          32  ss_SKEIN.o(.constdata)
    .init_array                              0x0006a480   Section        4  gaf.o(.init_array)
    .init_array                              0x0006a484   Section        4  x_long.o(.init_array)
    .init_array                              0x0006a488   Section        4  dsa_asn1.o(.init_array)
    .init_array                              0x0006a48c   Section        4  dsa_ossl.o(.init_array)
    .init_array                              0x0006a490   Section        4  tzapp_lib_main.o(.init_array)
    .init_array                              0x0006a494   Section        4  tasn_typ.o(.init_array)
    .init_array                              0x0006a498   Section        4  x_bignum.o(.init_array)
    .init_array                              0x0006a49c   Section        4  ex_data.o(.init_array)
    .init_array                              0x0006a4a0   Section        4  mem.o(.init_array)
    .init_array                              0x0006a4a4   Section        4  bn_lib.o(.init_array)
    .init_array                              0x0006a4a8   Section        4  m_sha1.o(.init_array)
    .init_array                              0x0006a4ac   Section        4  fips_md.o(.init_array)
    .init_array                              0x0006a4b0   Section        4  ctr_drbg_ossl.o(.init_array)
    .init_array                              0x0006a4b4   Section        4  x_sig.o(.init_array)
    .init_array                              0x0006a4b8   Section        4  obj_dat.o(.init_array)
    .init_array                              0x0006a4bc   Section        4  o_init.o(.init_array)
    .init_array                              0x0006a4c0   Section        4  ec_curve.o(.init_array)
    .init_array                              0x0006a4c4   Section        4  rsa_eay.o(.init_array)
    .init_array                              0x0006a4c8   Section        4  fips_drbg_rand.o(.init_array)
    .init_array                              0x0006a4cc   Section        4  fips_rand.o(.init_array)
    .init_array                              0x0006a4d0   Section        4  x_algor.o(.init_array)
    .init_array                              0x0006a4d4   Section        4  ecs_asn1.o(.init_array)
    .init_array                              0x0006a4d8   Section        4  ech_ossl.o(.init_array)
    .init_array                              0x0006a4dc   Section        4  fips_mem.o(.init_array)
    .init_array                              0x0006a4e0   Section        4  fips_enc.o(.init_array)
    .init_array                              0x0006a4e4   Section        4  fips_ecdh_selftest.o(.init_array)
    .init_array                              0x0006a4e8   Section        4  fips_ecdsa_selftest.o(.init_array)
    .init_array                              0x0006a4ec   Section        4  fips_drbg_selftest.o(.init_array)
    .init_array                              0x0006a4f0   Section        4  ecp_mont.o(.init_array)
    .init_array                              0x0006a4f4   Section        4  ecs_ossl.o(.init_array)
    .init_array                              0x0006a4f8   Section        4  e_des3.o(.init_array)
    .init_array                              0x0006a4fc   Section        4  e_aes.o(.init_array)
    .init_array                              0x0006a500   Section        4  ecp_smpl.o(.init_array)
    .data                                    0x0006b004   Section       12  tz_main.o(.data)
    .data                                    0x0006b010   Section        8  tz_main.o(.data)
    .data                                    0x0006b018   Section       39  tz_key_wrapping.o(.data)
    SS_QSEE_KEY_PATH                         0x0006b018   Data          14  tz_key_wrapping.o(.data)
    SS_QSEE_KEY_PATH_NAME                    0x0006b026   Data          25  tz_key_wrapping.o(.data)
    .data                                    0x0006b040   Section       12  tz_ta_sstorage_service.o(.data)
    SDState                                  0x0006b048   Data           4  tz_ta_sstorage_service.o(.data)
    .data                                    0x0006b04c   Section      312  ss_lable_processing.o(.data)
    decrypted                                0x0006b04c   Data           4  ss_lable_processing.o(.data)
    decrypted                                0x0006b050   Data           4  ss_lable_processing.o(.data)
    hnLlrcecmda1293886421                    0x0006b054   Data           4  ss_lable_processing.o(.data)
    htlrhifb1293886421                       0x0006b058   Data           4  ss_lable_processing.o(.data)
    flAagfNacmRnae1293886421                 0x0006b05c   Data           4  ss_lable_processing.o(.data)
    gnnluRee1293886421                       0x0006b060   Data           4  ss_lable_processing.o(.data)
    DevContext                               0x0006b064   Data          32  ss_lable_processing.o(.data)
    lable_eng                                0x0006b084   Data         128  ss_lable_processing.o(.data)
    lable_usr                                0x0006b104   Data         128  ss_lable_processing.o(.data)
    .data                                    0x0006b184   Section       80  tz_ta_sstorage_secdrv_interface.o(.data)
    drv_app_info_ciper                       0x0006b18c   Data          72  tz_ta_sstorage_secdrv_interface.o(.data)
    .data                                    0x0006b1d4   Section        4  stub_secdrv.o(.data)
    .data                                    0x0006b1d8   Section        4  ss_memory_internal.o(.data)
    num_index                                0x0006b1d8   Data           4  ss_memory_internal.o(.data)
    .data                                    0x0006b1dc   Section      256  ss_SHORT_SHA256.o(.data)
    K256                                     0x0006b1dc   Data         256  ss_SHORT_SHA256.o(.data)
    .data                                    0x0006b2dc   Section        4  ss_helper_functions.o(.data)
    ss_build_type                            0x0006b2dc   Data           4  ss_helper_functions.o(.data)
    .data                                    0x0006b2e0   Section       32  ss_key_generation.o(.data)
    DUK                                      0x0006b2e0   Data          32  ss_key_generation.o(.data)
    .data                                    0x0006b300   Section       24  task.o(.data)
    task_is_found                            0x0006b300   Data           4  task.o(.data)
    num_index                                0x0006b304   Data           4  task.o(.data)
    .data                                    0x0006b318   Section        8  ss_parse_ustack.o(.data)
    count_val_stack                          0x0006b318   Data           4  ss_parse_ustack.o(.data)
    num_index                                0x0006b31c   Data           4  ss_parse_ustack.o(.data)
    .data                                    0x0006b320   Section        8  ss_config.o(.data)
    .data                                    0x0006b328   Section        8  gaf.o(.data)
    .data                                    0x0006b330   Section        4  cache_table.o(.data)
    table_main                               0x0006b330   Data           4  cache_table.o(.data)
    .data                                    0x0006b334   Section       80  selftest.o(.data)
    .data                                    0x0006b384   Section        4  cryptolog.o(.data)
    count_static                             0x0006b384   Data           4  cryptolog.o(.data)
    .data                                    0x0006b388   Section        4  ss_mapped_regions_registry.o(.data)
    num_index                                0x0006b388   Data           4  ss_mapped_regions_registry.o(.data)
    .data                                    0x0006b38c   Section        4  dumpdrv_hw_hal.o(.data)
    .data                                    0x0006b390   Section       60  x_long.o(.data)
    long_pf                                  0x0006b390   Data          32  x_long.o(.data)
    local_it                                 0x0006b3b0   Data          28  x_long.o(.data)
    .data                                    0x0006b3cc   Section      484  dsa_asn1.o(.data)
    DSA_SIG_aux                              0x0006b3cc   Data          24  dsa_asn1.o(.data)
    DSA_SIG_seq_tt                           0x0006b3e4   Data          40  dsa_asn1.o(.data)
    DSAPrivateKey_aux                        0x0006b40c   Data          24  dsa_asn1.o(.data)
    DSAPrivateKey_seq_tt                     0x0006b424   Data         120  dsa_asn1.o(.data)
    DSAparams_aux                            0x0006b49c   Data          24  dsa_asn1.o(.data)
    DSAparams_seq_tt                         0x0006b4b4   Data          60  dsa_asn1.o(.data)
    DSAPublicKey_seq_tt                      0x0006b4f0   Data          80  dsa_asn1.o(.data)
    local_it                                 0x0006b540   Data          28  dsa_asn1.o(.data)
    local_it                                 0x0006b55c   Data          28  dsa_asn1.o(.data)
    local_it                                 0x0006b578   Data          28  dsa_asn1.o(.data)
    local_it                                 0x0006b594   Data          28  dsa_asn1.o(.data)
    .data                                    0x0006b5b0   Section        4  dsa_lib.o(.data)
    default_DSA_method                       0x0006b5b0   Data           4  dsa_lib.o(.data)
    .data                                    0x0006b5b4   Section       48  dsa_ossl.o(.data)
    openssl_dsa_meth                         0x0006b5b4   Data          48  dsa_ossl.o(.data)
    .data                                    0x0006b5e8   Section        8  vmem_64.o(.data)
    .data                                    0x0006b5f0   Section        4  vmem_64.o(.data)
    .data                                    0x0006b5f4   Section        4  vmem_64.o(.data)
    .data                                    0x0006b5f8   Section       20  vmem_64.o(.data)
    .data                                    0x0006b60c   Section        4  vmem_64.o(.data)
    .data                                    0x0006b610   Section        4  vmem_64.o(.data)
    .data                                    0x0006b614   Section       86  tzapp_lib_main.o(.data)
    .data                                    0x0006b66c   Section        4  pd_rand.o(.data)
    entropy_func                             0x0006b66c   Data           4  pd_rand.o(.data)
    .data                                    0x0006b670   Section        1  mem_clr.o(.data)
    .data                                    0x0006b674   Section      796  tasn_typ.o(.data)
    ASN1_SEQUENCE_ANY_item_tt                0x0006b674   Data          20  tasn_typ.o(.data)
    ASN1_SET_ANY_item_tt                     0x0006b688   Data          20  tasn_typ.o(.data)
    local_it                                 0x0006b69c   Data          28  tasn_typ.o(.data)
    local_it                                 0x0006b6b8   Data          28  tasn_typ.o(.data)
    local_it                                 0x0006b6d4   Data          28  tasn_typ.o(.data)
    local_it                                 0x0006b6f0   Data          28  tasn_typ.o(.data)
    local_it                                 0x0006b70c   Data          28  tasn_typ.o(.data)
    local_it                                 0x0006b728   Data          28  tasn_typ.o(.data)
    local_it                                 0x0006b744   Data          28  tasn_typ.o(.data)
    local_it                                 0x0006b760   Data          28  tasn_typ.o(.data)
    local_it                                 0x0006b77c   Data          28  tasn_typ.o(.data)
    local_it                                 0x0006b798   Data          28  tasn_typ.o(.data)
    local_it                                 0x0006b7b4   Data          28  tasn_typ.o(.data)
    local_it                                 0x0006b7d0   Data          28  tasn_typ.o(.data)
    local_it                                 0x0006b7ec   Data          28  tasn_typ.o(.data)
    local_it                                 0x0006b808   Data          28  tasn_typ.o(.data)
    local_it                                 0x0006b824   Data          28  tasn_typ.o(.data)
    local_it                                 0x0006b840   Data          28  tasn_typ.o(.data)
    local_it                                 0x0006b85c   Data          28  tasn_typ.o(.data)
    local_it                                 0x0006b878   Data          28  tasn_typ.o(.data)
    local_it                                 0x0006b894   Data          28  tasn_typ.o(.data)
    local_it                                 0x0006b8b0   Data          28  tasn_typ.o(.data)
    local_it                                 0x0006b8cc   Data          28  tasn_typ.o(.data)
    local_it                                 0x0006b8e8   Data          28  tasn_typ.o(.data)
    local_it                                 0x0006b904   Data          28  tasn_typ.o(.data)
    local_it                                 0x0006b920   Data          28  tasn_typ.o(.data)
    local_it                                 0x0006b93c   Data          28  tasn_typ.o(.data)
    local_it                                 0x0006b958   Data          28  tasn_typ.o(.data)
    local_it                                 0x0006b974   Data          28  tasn_typ.o(.data)
    .data                                    0x0006b990   Section       88  x_bignum.o(.data)
    bignum_pf                                0x0006b990   Data          32  x_bignum.o(.data)
    local_it                                 0x0006b9b0   Data          28  x_bignum.o(.data)
    local_it                                 0x0006b9cc   Data          28  x_bignum.o(.data)
    .data                                    0x0006b9e8   Section       36  ex_data.o(.data)
    impl                                     0x0006b9e8   Data           4  ex_data.o(.data)
    ex_class                                 0x0006b9ec   Data           4  ex_data.o(.data)
    ex_data                                  0x0006b9f0   Data           4  ex_data.o(.data)
    impl_default                             0x0006b9f4   Data          24  ex_data.o(.data)
    .data                                    0x0006ba0c   Section       60  mem.o(.data)
    allow_customize                          0x0006ba0c   Data           4  mem.o(.data)
    allow_customize_debug                    0x0006ba10   Data           4  mem.o(.data)
    malloc_func                              0x0006ba14   Data           4  mem.o(.data)
    malloc_ex_func                           0x0006ba18   Data           4  mem.o(.data)
    realloc_func                             0x0006ba1c   Data           4  mem.o(.data)
    realloc_ex_func                          0x0006ba20   Data           4  mem.o(.data)
    free_func                                0x0006ba24   Data           4  mem.o(.data)
    malloc_locked_func                       0x0006ba28   Data           4  mem.o(.data)
    malloc_locked_ex_func                    0x0006ba2c   Data           4  mem.o(.data)
    free_locked_func                         0x0006ba30   Data           4  mem.o(.data)
    malloc_debug_func                        0x0006ba34   Data           4  mem.o(.data)
    realloc_debug_func                       0x0006ba38   Data           4  mem.o(.data)
    free_debug_func                          0x0006ba3c   Data           4  mem.o(.data)
    set_debug_options_func                   0x0006ba40   Data           4  mem.o(.data)
    get_debug_options_func                   0x0006ba44   Data           4  mem.o(.data)
    .data                                    0x0006ba48   Section        4  rsa_lib.o(.data)
    default_RSA_meth                         0x0006ba48   Data           4  rsa_lib.o(.data)
    .data                                    0x0006ba4c   Section       52  bn_lib.o(.data)
    bn_limit_bits                            0x0006ba4c   Data           4  bn_lib.o(.data)
    bn_limit_num                             0x0006ba50   Data           4  bn_lib.o(.data)
    bn_limit_bits_low                        0x0006ba54   Data           4  bn_lib.o(.data)
    bn_limit_num_low                         0x0006ba58   Data           4  bn_lib.o(.data)
    bn_limit_bits_high                       0x0006ba5c   Data           4  bn_lib.o(.data)
    bn_limit_num_high                        0x0006ba60   Data           4  bn_lib.o(.data)
    bn_limit_bits_mont                       0x0006ba64   Data           4  bn_lib.o(.data)
    bn_limit_num_mont                        0x0006ba68   Data           4  bn_lib.o(.data)
    const_one                                0x0006ba6c   Data          20  bn_lib.o(.data)
    .data                                    0x0006ba80   Section      380  m_sha1.o(.data)
    sha1_md                                  0x0006ba80   Data          76  m_sha1.o(.data)
    sha224_md                                0x0006bacc   Data          76  m_sha1.o(.data)
    sha256_md                                0x0006bb18   Data          76  m_sha1.o(.data)
    sha384_md                                0x0006bb64   Data          76  m_sha1.o(.data)
    sha512_md                                0x0006bbb0   Data          76  m_sha1.o(.data)
    .data                                    0x0006bbfc   Section       76  fips_md.o(.data)
    bad_md                                   0x0006bbfc   Data          76  fips_md.o(.data)
    .data                                    0x0006bc48   Section       12  fips_rand_lib.o(.data)
    fips_rand_meth                           0x0006bc48   Data           4  fips_rand_lib.o(.data)
    fips_approved_rand_meth                  0x0006bc4c   Data           4  fips_rand_lib.o(.data)
    fips_rand_bits                           0x0006bc50   Data           4  fips_rand_lib.o(.data)
    .data                                    0x0006bc54   Section       28  ctr_drbg_ossl.o(.data)
    initialized                              0x0006bc54   Data           4  ctr_drbg_ossl.o(.data)
    .data                                    0x0006bc70   Section        4  ech_lib.o(.data)
    default_ECDH_method                      0x0006bc70   Data           4  ech_lib.o(.data)
    .data                                    0x0006bc74   Section       68  x_sig.o(.data)
    X509_SIG_seq_tt                          0x0006bc74   Data          40  x_sig.o(.data)
    local_it                                 0x0006bc9c   Data          28  x_sig.o(.data)
    .data                                    0x0006bcb8   Section    22092  obj_dat.o(.data)
    new_nid                                  0x0006bcb8   Data           4  obj_dat.o(.data)
    added                                    0x0006bcbc   Data           4  obj_dat.o(.data)
    nid_objs                                 0x0006bcc4   Data       22080  obj_dat.o(.data)
    .data                                    0x00071304   Section       16  rand_lib.o(.data)
    default_RAND_meth                        0x00071304   Data           4  rand_lib.o(.data)
    fips_drbg_type                           0x00071308   Data           4  rand_lib.o(.data)
    fips_drbg_flags                          0x0007130c   Data           4  rand_lib.o(.data)
    counter                                  0x00071310   Data           4  rand_lib.o(.data)
    .data                                    0x00071314   Section        4  o_init.o(.data)
    done                                     0x00071314   Data           4  o_init.o(.data)
    .data                                    0x00071318   Section      400  ec_curve.o(.data)
    curve_list                               0x00071318   Data         400  ec_curve.o(.data)
    .data                                    0x000714a8   Section       56  rsa_eay.o(.data)
    rsa_pkcs1_eay_meth                       0x000714a8   Data          56  rsa_eay.o(.data)
    .data                                    0x000714e0   Section        4  fips_drbg_lib.o(.data)
    drbg_stick                               0x000714e0   Data           4  fips_drbg_lib.o(.data)
    .data                                    0x000714e4   Section       24  fips_drbg_rand.o(.data)
    rand_drbg_meth                           0x000714e4   Data          24  fips_drbg_rand.o(.data)
    .data                                    0x000714fc   Section       28  fips_rand.o(.data)
    fips_prng_fail                           0x000714fc   Data           4  fips_rand.o(.data)
    rand_x931_meth                           0x00071500   Data          24  fips_rand.o(.data)
    .data                                    0x00071518   Section       32  fips.o(.data)
    fips_selftest_fail                       0x00071518   Data           4  fips.o(.data)
    fips_auth_fail                           0x0007151c   Data           4  fips.o(.data)
    fips_initial_init                        0x00071520   Data           4  fips.o(.data)
    fips_mode                                0x00071524   Data           4  fips.o(.data)
    fips_started                             0x00071528   Data           4  fips.o(.data)
    fips_thread_set                          0x0007152c   Data           4  fips.o(.data)
    fips_thread                              0x00071530   Data           8  fips.o(.data)
    .data                                    0x00071538   Section       12  fips_post.o(.data)
    post_status                              0x00071538   Data           4  fips_post.o(.data)
    post_failure                             0x0007153c   Data           4  fips_post.o(.data)
    .data                                    0x00071544   Section      116  x_algor.o(.data)
    X509_ALGOR_seq_tt                        0x00071544   Data          40  x_algor.o(.data)
    X509_ALGORS_item_tt                      0x0007156c   Data          20  x_algor.o(.data)
    local_it                                 0x00071580   Data          28  x_algor.o(.data)
    local_it                                 0x0007159c   Data          28  x_algor.o(.data)
    .data                                    0x000715b8   Section       68  ecs_asn1.o(.data)
    ECDSA_SIG_seq_tt                         0x000715b8   Data          40  ecs_asn1.o(.data)
    local_it                                 0x000715e0   Data          28  ecs_asn1.o(.data)
    .data                                    0x000715fc   Section        8  o_names.o(.data)
    names_lh                                 0x000715fc   Data           4  o_names.o(.data)
    name_funcs_stack                         0x00071600   Data           4  o_names.o(.data)
    .data                                    0x00071604   Section       40  ech_ossl.o(.data)
    openssl_ecdh_meth                        0x00071604   Data          16  ech_ossl.o(.data)
    rv                                       0x00071614   Data          24  ech_ossl.o(.data)
    .data                                    0x0007162c   Section        8  fips_lck.o(.data)
    fips_lck_cb                              0x0007162c   Data           4  fips_lck.o(.data)
    fips_add_cb                              0x00071630   Data           4  fips_lck.o(.data)
    .data                                    0x00071634   Section        8  fips_mem.o(.data)
    fips_malloc_cb                           0x00071634   Data           4  fips_mem.o(.data)
    fips_free_cb                             0x00071638   Data           4  fips_mem.o(.data)
    .data                                    0x0007163c   Section        8  fips_err.o(.data)
    fips_put_error_cb                        0x0007163c   Data           4  fips_err.o(.data)
    fips_add_error_vdata                     0x00071640   Data           4  fips_err.o(.data)
    .data                                    0x00071644   Section       52  fips_enc.o(.data)
    bad_cipher                               0x00071644   Data          52  fips_enc.o(.data)
    .data                                    0x00071678   Section       52  fips_ecdh_selftest.o(.data)
    test_ecdh_data                           0x00071678   Data          52  fips_ecdh_selftest.o(.data)
    .data                                    0x000716ac   Section       32  fips_ecdsa_selftest.o(.data)
    test_ec_data                             0x000716ac   Data          32  fips_ecdsa_selftest.o(.data)
    .data                                    0x000716cc   Section       33  fips_drbg_ctr.o(.data)
    c80                                      0x000716cc   Data           1  fips_drbg_ctr.o(.data)
    df_key                                   0x000716cd   Data          32  fips_drbg_ctr.o(.data)
    .data                                    0x000716ed   Section        2  fips_drbg_hmac.o(.data)
    c0                                       0x000716ed   Data           1  fips_drbg_hmac.o(.data)
    c1                                       0x000716ee   Data           1  fips_drbg_hmac.o(.data)
    .data                                    0x000716f0   Section     4524  fips_drbg_selftest.o(.data)
    drbg_test                                0x000716f0   Data        4524  fips_drbg_selftest.o(.data)
    .data                                    0x0007289c   Section      216  fips_rand_selftest.o(.data)
    aes_128_key                              0x0007289c   Data          16  fips_rand_selftest.o(.data)
    aes_128_tv                               0x000728ac   Data          48  fips_rand_selftest.o(.data)
    aes_192_key                              0x000728dc   Data          24  fips_rand_selftest.o(.data)
    aes_192_tv                               0x000728f4   Data          48  fips_rand_selftest.o(.data)
    aes_256_key                              0x00072924   Data          32  fips_rand_selftest.o(.data)
    aes_256_tv                               0x00072944   Data          48  fips_rand_selftest.o(.data)
    .data                                    0x00072974   Section      156  ecp_mont.o(.data)
    ret                                      0x00072974   Data         156  ecp_mont.o(.data)
    .data                                    0x00072a10   Section       48  ecs_ossl.o(.data)
    openssl_ecdsa_meth                       0x00072a10   Data          24  ecs_ossl.o(.data)
    rv                                       0x00072a28   Data          24  ecs_ossl.o(.data)
    .data                                    0x00072a40   Section      520  e_des3.o(.data)
    des_ede_cbc                              0x00072a40   Data          52  e_des3.o(.data)
    des_ede_cfb64                            0x00072a74   Data          52  e_des3.o(.data)
    des_ede_ofb                              0x00072aa8   Data          52  e_des3.o(.data)
    des_ede_ecb                              0x00072adc   Data          52  e_des3.o(.data)
    des_ede3_cbc                             0x00072b10   Data          52  e_des3.o(.data)
    des_ede3_cfb64                           0x00072b44   Data          52  e_des3.o(.data)
    des_ede3_ofb                             0x00072b78   Data          52  e_des3.o(.data)
    des_ede3_ecb                             0x00072bac   Data          52  e_des3.o(.data)
    des_ede3_cfb1                            0x00072be0   Data          52  e_des3.o(.data)
    des_ede3_cfb8                            0x00072c14   Data          52  e_des3.o(.data)
    .data                                    0x00072c48   Section     1508  e_aes.o(.data)
    aes_128_cbc                              0x00072c48   Data          52  e_aes.o(.data)
    aes_128_ecb                              0x00072c7c   Data          52  e_aes.o(.data)
    aes_128_ofb                              0x00072cb0   Data          52  e_aes.o(.data)
    aes_128_cfb                              0x00072ce4   Data          52  e_aes.o(.data)
    aes_128_cfb1                             0x00072d18   Data          52  e_aes.o(.data)
    aes_128_cfb8                             0x00072d4c   Data          52  e_aes.o(.data)
    aes_128_ctr                              0x00072d80   Data          52  e_aes.o(.data)
    aes_192_cbc                              0x00072db4   Data          52  e_aes.o(.data)
    aes_192_ecb                              0x00072de8   Data          52  e_aes.o(.data)
    aes_192_ofb                              0x00072e1c   Data          52  e_aes.o(.data)
    aes_192_cfb                              0x00072e50   Data          52  e_aes.o(.data)
    aes_192_cfb1                             0x00072e84   Data          52  e_aes.o(.data)
    aes_192_cfb8                             0x00072eb8   Data          52  e_aes.o(.data)
    aes_192_ctr                              0x00072eec   Data          52  e_aes.o(.data)
    aes_256_cbc                              0x00072f20   Data          52  e_aes.o(.data)
    aes_256_ecb                              0x00072f54   Data          52  e_aes.o(.data)
    aes_256_ofb                              0x00072f88   Data          52  e_aes.o(.data)
    aes_256_cfb                              0x00072fbc   Data          52  e_aes.o(.data)
    aes_256_cfb1                             0x00072ff0   Data          52  e_aes.o(.data)
    aes_256_cfb8                             0x00073024   Data          52  e_aes.o(.data)
    aes_256_ctr                              0x00073058   Data          52  e_aes.o(.data)
    aes_128_gcm                              0x0007308c   Data          52  e_aes.o(.data)
    aes_192_gcm                              0x000730c0   Data          52  e_aes.o(.data)
    aes_256_gcm                              0x000730f4   Data          52  e_aes.o(.data)
    aes_128_xts                              0x00073128   Data          52  e_aes.o(.data)
    aes_256_xts                              0x0007315c   Data          52  e_aes.o(.data)
    aes_128_ccm                              0x00073190   Data          52  e_aes.o(.data)
    aes_192_ccm                              0x000731c4   Data          52  e_aes.o(.data)
    aes_256_ccm                              0x000731f8   Data          52  e_aes.o(.data)
    .data                                    0x0007322c   Section        4  set_key.o(.data)
    _hide_DES_check_key                      0x0007322c   Data           4  set_key.o(.data)
    .data                                    0x00073230   Section      156  ecp_smpl.o(.data)
    ret                                      0x00073230   Data         156  ecp_smpl.o(.data)
    .data                                    0x000732cc   Section        4  stdio_streams.o(.data)
    .data                                    0x000732d0   Section        4  stdio_streams.o(.data)
    .data                                    0x000732d4   Section        4  stdio_streams.o(.data)
    .data                                    0x000732d8   Section        4  heapauxa.o(.data)
    __rt_heap_escrow_base                    0x000732d8   Data           4  heapauxa.o(.data)
    .bss                                     0x000732dc   Section     1600  stub_secrsa.o(.bss)
    key_static                               0x000732dc   Data        1600  stub_secrsa.o(.bss)
    .bss                                     0x0007391c   Section    25372  tz_ta_sstorage_service.o(.bss)
    SDPassword                               0x0007391c   Data          64  tz_ta_sstorage_service.o(.bss)
    SDDKEK                                   0x0007395c   Data         220  tz_ta_sstorage_service.o(.bss)
    auiRSACertificate                        0x00073a38   Data        8192  tz_ta_sstorage_service.o(.bss)
    auiRSAComponentE                         0x00075a38   Data         256  tz_ta_sstorage_service.o(.bss)
    auiRSAComponentN                         0x00075b38   Data         256  tz_ta_sstorage_service.o(.bss)
    auiDataBuffer                            0x00075c38   Data        8192  tz_ta_sstorage_service.o(.bss)
    auiDefaultDataBuffer                     0x00077c38   Data        8192  tz_ta_sstorage_service.o(.bss)
    .bss                                     0x00079c38   Section     4096  ss_key_destruction.o(.bss)
    dummyString                              0x00079c38   Data        4096  ss_key_destruction.o(.bss)
    .bss                                     0x0007ac38   Section      128  ss_lable_processing.o(.bss)
    lable_eng_orig                           0x0007ac38   Data          64  ss_lable_processing.o(.bss)
    lable_usr_orig                           0x0007ac78   Data          64  ss_lable_processing.o(.bss)
    .bss                                     0x0007acb8   Section      300  ss_key_management_skmm_key_generation.o(.bss)
    bufferToPrint                            0x0007acb8   Data         300  ss_key_management_skmm_key_generation.o(.bss)
    .bss                                     0x0007ade4   Section     8536  tz_ta_sstorage_secdrv_interface.o(.bss)
    procValConfPtr                           0x0007ade4   Data        8200  tz_ta_sstorage_secdrv_interface.o(.bss)
    bufferToPrint                            0x0007cdec   Data         300  tz_ta_sstorage_secdrv_interface.o(.bss)
    drv_app_info                             0x0007cf18   Data          36  tz_ta_sstorage_secdrv_interface.o(.bss)
    .bss                                     0x0007cf3c   Section      125  ss_memory_internal.o(.bss)
    printer                                  0x0007cf3c   Data          19  ss_memory_internal.o(.bss)
    printer_nwd                              0x0007cf4f   Data          95  ss_memory_internal.o(.bss)
    printer_swd                              0x0007cfae   Data          11  ss_memory_internal.o(.bss)
    .bss                                     0x0007cfc0   Section     8568  task.o(.bss)
    printer                                  0x0007cfc0   Data          19  task.o(.bss)
    printer_nwd                              0x0007cfd3   Data          95  task.o(.bss)
    change_buf                               0x0007d032   Data        4096  task.o(.bss)
    L1_cache                                 0x0007e038   Data        4096  task.o(.bss)
    .bss                                     0x0007f138   Section     4200  task.o(.bss)
    .bss                                     0x000801a0   Section     5496  ss_parse_ustack.o(.bss)
    printer_nwd                              0x000801a0   Data          95  ss_parse_ustack.o(.bss)
    call_ustack_list                         0x00080200   Data        1200  ss_parse_ustack.o(.bss)
    .bss                                     0x00081718   Section      168  gaf.o(.bss)
    lcGaf                                    0x00081718   Data         168  gaf.o(.bss)
    .bss                                     0x000817c0   Section       11  dmp.o(.bss)
    printer_swd                              0x000817c0   Data          11  dmp.o(.bss)
    .bss                                     0x000817d0   Section      120  tz_prng.o(.bss)
    WS                                       0x000817d0   Data         120  tz_prng.o(.bss)
    .bss                                     0x00081848   Section     2756  cryptolog.o(.bss)
    C_Log_Data_out                           0x00081d0c   Data         512  cryptolog.o(.bss)
    hex_log                                  0x00081f0c   Data        1024  cryptolog.o(.bss)
    .bss                                     0x00082310   Section      432  ss_mapped_regions_registry.o(.bss)
    printer_nwd                              0x00082310   Data          95  ss_mapped_regions_registry.o(.bss)
    printer_swd                              0x0008236f   Data          11  ss_mapped_regions_registry.o(.bss)
    .bss                                     0x000824c0   Section      360  tzapp_lib_main.o(.bss)
    .bss                                     0x00082628   Section      129  mem_clr.o(.bss)
    printbuf                                 0x00082628   Data         129  mem_clr.o(.bss)
    .bss                                     0x000826a9   Section       64  hmac.o(.bss)
    m                                        0x000826a9   Data          64  hmac.o(.bss)
    .bss                                     0x000826e9   Section      112  sha512.o(.bss)
    m                                        0x000826e9   Data          48  sha512.o(.bss)
    m                                        0x00082719   Data          64  sha512.o(.bss)
    .bss                                     0x00082759   Section       60  sha256.o(.bss)
    m                                        0x00082759   Data          28  sha256.o(.bss)
    m                                        0x00082775   Data          32  sha256.o(.bss)
    .bss                                     0x00082798   Section      136  ctr_drbg_ossl.o(.bss)
    tmp                                      0x00082798   Data          64  ctr_drbg_ossl.o(.bss)
    ossl_ctx                                 0x000827d8   Data          72  ctr_drbg_ossl.o(.bss)
    .bss                                     0x00082820   Section       16  rand_lib.o(.bss)
    buf                                      0x00082820   Data          16  rand_lib.o(.bss)
    .bss                                     0x00082830   Section     1052  fips_drbg_rand.o(.bss)
    ossl_dctx                                0x00082830   Data        1052  fips_drbg_rand.o(.bss)
    .bss                                     0x00082c4c   Section      336  fips_rand.o(.bss)
    sctx                                     0x00082c4c   Data         336  fips_rand.o(.bss)
    .bss                                     0x00082d9c   Section       64  fips.o(.bss)
    .bss                                     0x00082ddc   Section       20  rt_locale.o(.bss)
    __rt_locale_data                         0x00082ddc   Data          20  rt_locale.o(.bss)
    .bss                                     0x00082df0   Section       84  stdio_streams.o(.bss)
    .bss                                     0x00082e44   Section       84  stdio_streams.o(.bss)
    .bss                                     0x00082e98   Section       84  stdio_streams.o(.bss)
    .bss                                     0x00082eec   Section        4  rt_heap_descriptor.o(.bss)
    __rt_heap_descriptor_data                0x00082eec   Data           4  rt_heap_descriptor.o(.bss)
    .bss                                     0x00082ef0   Section        4  rt_errno_addr.o(.bss)
    __aeabi_errno_addr_data                  0x00082ef0   Data           4  rt_errno_addr.o(.bss)

    Global Symbols

    Symbol Name                              Value     Ov Type        Size  Object(Section)

    BuildAttributes$$THM_ISAv4$ARM_ISAv7$X$E$P$J$Z$K$B$S$PE$PLD3$A:L22UL41UL21$X:L11$S22US41US21$IEEE1$IW$RWPI$~STKCKD$USESV7$~SHL$OTIME$ROPI$IEEEJ$EBA8$UX$STANDARDLIB$THUMB2LIB$REQ8$EABIv2 0x00000000   Number         0  anon$$obj.o ABSOLUTE
    TZAPPENTRY                               0x00000000   ARM Code       0  tzapp_entry.o(TZAPPENTRYCODE)
    __main                                   0x00000000   ARM Code       0  tzapp_entry.o(TZAPPENTRYCODE)
    _main                                    0x00000000   ARM Code       0  tzapp_entry.o(TZAPPENTRYCODE)
    _printf_flags                            0x00000000   Number         0  printf_stubs.o ABSOLUTE
    _printf_return_value                     0x00000000   Number         0  printf_stubs.o ABSOLUTE
    _printf_sizespec                         0x00000000   Number         0  printf_stubs.o ABSOLUTE
    _printf_widthprec                        0x00000000   Number         0  printf_stubs.o ABSOLUTE
    __ARM_exceptions_init                     - Undefined Weak Reference
    __alloca_initialize                       - Undefined Weak Reference
    __cxa_finalize                            - Undefined Weak Reference
    __sigvec_lookup                           - Undefined Weak Reference
    __user_heap_extent                        - Undefined Weak Reference
    _atexit_init                              - Undefined Weak Reference
    _clock_init                               - Undefined Weak Reference
    _fp_trap_init                             - Undefined Weak Reference
    _fp_trap_shutdown                         - Undefined Weak Reference
    _get_lc_collate                           - Undefined Weak Reference
    _get_lc_monetary                          - Undefined Weak Reference
    _get_lc_time                              - Undefined Weak Reference
    _getenv_init                              - Undefined Weak Reference
    _handle_redirection                       - Undefined Weak Reference
    _mutex_acquire                            - Undefined Weak Reference
    _mutex_free                               - Undefined Weak Reference
    _mutex_release                            - Undefined Weak Reference
    _printf_fp_hex                            - Undefined Weak Reference
    _printf_mbtowc                            - Undefined Weak Reference
    _printf_wc                                - Undefined Weak Reference
    _rand_init                                - Undefined Weak Reference
    _signal_finish                            - Undefined Weak Reference
    _signal_init                              - Undefined Weak Reference
    read_app_rw_base                         0x00000064   ARM Code       0  tzapp_entry.o(TZAPPENTRYCODE)
    set_rw_base                              0x00000070   ARM Code       0  tzapp_entry.o(TZAPPENTRYCODE)
    calc_hash_TZ                             0x0000007d   Thumb Code    48  tz_ta_crypto_static.o(.text)
    check_RSA_PKCS_1_signature               0x000000ad   Thumb Code   106  tz_ta_crypto_static.o(.text)
    generate_HMAC_signature                  0x00000117   Thumb Code   114  tz_ta_crypto_static.o(.text)
    check_HMAC_signature                     0x00000189   Thumb Code   144  tz_ta_crypto_static.o(.text)
    ss_gen_app_key_v1                        0x00000219   Thumb Code   100  tz_ta_crypto_static.o(.text)
    ss_rsa_encrypt                           0x0000027d   Thumb Code   110  tz_ta_crypto_static.o(.text)
    ce_rsa_keyset_init                       0x000002eb   Thumb Code    12  stub_secrsa.o(.text)
    ce_rsa_keyset_del                        0x000002f7   Thumb Code     2  stub_secrsa.o(.text)
    ss_destroy_key_and_verify                0x000002f9   Thumb Code   132  ss_key_destruction.o(.text)
    PBKDF2_HMAC_SHA512                       0x000004e7   Thumb Code   622  tz_ta_crypto_api_common.o(.text)
    KDF                                      0x00000755   Thumb Code   536  tz_ta_crypto_api_common.o(.text)
    ss_kdf                                   0x0000096d   Thumb Code   194  tz_ta_crypto_api_common.o(.text)
    get_lable_eng                            0x00001655   Thumb Code   138  ss_lable_processing.o(.text)
    get_lable_usr                            0x000016df   Thumb Code   138  ss_lable_processing.o(.text)
    set_aad_data                             0x00001769   Thumb Code    34  ss_lable_processing.o(.text)
    get_aad_data                             0x0000178b   Thumb Code    94  ss_lable_processing.o(.text)
    get_DevContext                           0x000017e9   Thumb Code    16  ss_lable_processing.o(.text)
    ss_generate_app_key                      0x0000184f   Thumb Code   262  ss_key_management.o(.text)
    parseWrappedDKEK                         0x0000197d   Thumb Code   306  ss_key_management_wrapper.o(.text)
    parseWrappedDEK                          0x00001aaf   Thumb Code   170  ss_key_management_wrapper.o(.text)
    setWrappedDKEK                           0x00001b59   Thumb Code   202  ss_key_management_wrapper.o(.text)
    setWrappedDEK                            0x00001c23   Thumb Code   126  ss_key_management_wrapper.o(.text)
    parseWrappedString                       0x00001ca1   Thumb Code    50  ss_key_management_wrapper.o(.text)
    setWrappedString                         0x00001cd3   Thumb Code    50  ss_key_management_wrapper.o(.text)
    setDEKtoDKEK                             0x00001d05   Thumb Code    76  ss_key_management_wrapper.o(.text)
    ss_wrap_provisioned_key                  0x00001d51   Thumb Code   126  ss_key_management_provisioned_key_wrapper.o(.text)
    ss_unwrap_provisioned_key                0x00001dcf   Thumb Code    92  ss_key_management_provisioned_key_wrapper.o(.text)
    genHmacKey                               0x00001e2b   Thumb Code   288  ss_key_management_hmac_key_generation.o(.text)
    decryptHmacKey                           0x00001f4b   Thumb Code   190  ss_key_management_hmac_key_generation.o(.text)
    ss_write_data_to_NWd                     0x00002009   Thumb Code   162  ss_memory_management.o(.text)
    ss_read_data_from_NWd                    0x000020ab   Thumb Code   150  ss_memory_management.o(.text)
    ss_id_file_len                           0x00002141   Thumb Code     4  ss_process_ss_id.o(.text)
    ss_id_file_type                          0x00002145   Thumb Code     4  ss_process_ss_id.o(.text)
    ss_id_native_len                         0x00002149   Thumb Code     4  ss_process_ss_id.o(.text)
    ss_id_lib_len                            0x0000214d   Thumb Code     4  ss_process_ss_id.o(.text)
    ss_id_skips_count                        0x00002151   Thumb Code    16  ss_process_ss_id.o(.text)
    ss_id_hash_addr                          0x00002161   Thumb Code     4  ss_process_ss_id.o(.text)
    ss_id_odex_addr                          0x00002165   Thumb Code     4  ss_process_ss_id.o(.text)
    ss_id_skips_addr                         0x00002169   Thumb Code    16  ss_process_ss_id.o(.text)
    ss_id_path_addr                          0x00002179   Thumb Code    92  ss_process_ss_id.o(.text)
    ss_id_rsa_addr                           0x000021d5   Thumb Code    82  ss_process_ss_id.o(.text)
    ss_id_package_addr                       0x00002227   Thumb Code   120  ss_process_ss_id.o(.text)
    remove_header_and_padding                0x0000229f   Thumb Code   112  X509v3_base64_decoder.o(.text)
    decode                                   0x0000230f   Thumb Code    72  X509v3_base64_decoder.o(.text)
    from_base64_to_char                      0x00002357   Thumb Code   226  X509v3_base64_decoder.o(.text)
    verify                                   0x00002463   Thumb Code  1496  X509v3_verify.o(.text)
    tlApiValidateProcess                     0x00002a3b   Thumb Code    30  stub_secdrv.o(.text)
    tlApiReadNWD                             0x00002a59   Thumb Code     4  stub_secdrv.o(.text)
    tlApiWriteToNWD                          0x00002a5d   Thumb Code     4  stub_secdrv.o(.text)
    tlApiCryptoToNWD                         0x00002a61   Thumb Code    18  stub_secdrv.o(.text)
    tlApiPrngGen                             0x00002a73   Thumb Code    16  stub_secdrv.o(.text)
    tlApiSetValConf                          0x00002a83   Thumb Code    18  stub_secdrv.o(.text)
    tlApiGenApplicationKey                   0x00002a95   Thumb Code    56  stub_secdrv.o(.text)
    tlApiSelfTest                            0x00002acd   Thumb Code     4  stub_secdrv.o(.text)
    tlApiSetLogKey                           0x00002ad1   Thumb Code    28  stub_secdrv.o(.text)
    get_entropy                              0x00002aed   Thumb Code    24  gen_entropy.o(.text)
    initFullSHA256                           0x00002b05   Thumb Code    10  ss_SHA256.o(.text)
    updateFullSHA256                         0x00002b0f   Thumb Code    10  ss_SHA256.o(.text)
    getResultAndResetFullSHA256              0x00002b19   Thumb Code    16  ss_SHA256.o(.text)
    initSHA512                               0x00002b29   Thumb Code    10  ss_SHA512.o(.text)
    updateSHA512                             0x00002b33   Thumb Code    10  ss_SHA512.o(.text)
    getResultAndResetSHA512                  0x00002b3d   Thumb Code    16  ss_SHA512.o(.text)
    initShortSHA256                          0x00003cbb   Thumb Code    10  ss_SHORT_SHA256.o(.text)
    updateShortSHA256                        0x00003cc5   Thumb Code    10  ss_SHORT_SHA256.o(.text)
    getResultAndResetShortSHA256             0x00003ccf   Thumb Code    16  ss_SHORT_SHA256.o(.text)
    computeHash                              0x00003cdf   Thumb Code   256  ss_hash.o(.text)
    initHash                                 0x00003ddf   Thumb Code    40  ss_hash.o(.text)
    updateHash                               0x00003e07   Thumb Code    40  ss_hash.o(.text)
    getResultAndResetHash                    0x00003e2f   Thumb Code    40  ss_hash.o(.text)
    ss_dr_get_random_string                  0x00003e57   Thumb Code    24  ss_hash.o(.text)
    set_build_type                           0x00003e6f   Thumb Code    14  ss_helper_functions.o(.text)
    get_build_type                           0x00003e7d   Thumb Code    14  ss_helper_functions.o(.text)
    set_device_key                           0x00003e8b   Thumb Code    18  ss_key_generation.o(.text)
    gen_application_key_aes_v1               0x00003e9d   Thumb Code    92  ss_key_generation.o(.text)
    gen_application_key_aes_v2               0x00003ef9   Thumb Code   142  ss_key_generation.o(.text)
    CheckOpcode                              0x00003f87   Thumb Code   198  opcode.o(.text)
    ss_aes_init                              0x0000404d   Thumb Code    28  ss_aes.o(.text)
    ss_aes_add_aad                           0x00004069   Thumb Code     4  ss_aes.o(.text)
    ss_aes_update                            0x0000406d   Thumb Code     6  ss_aes.o(.text)
    ss_aes_finalize                          0x00004073   Thumb Code     4  ss_aes.o(.text)
    phys_map4k                               0x00004077   Thumb Code    18  dumpdrv_hw_hal.o(.text)
    phys_unmap4k                             0x00004089   Thumb Code    18  dumpdrv_hw_hal.o(.text)
    phys_map_vapi                            0x0000409b   Thumb Code    20  dumpdrv_hw_hal.o(.text)
    phys_unmap_vapi                          0x000040af   Thumb Code    20  dumpdrv_hw_hal.o(.text)
    phys_check_map                           0x000040c3   Thumb Code    60  dumpdrv_hw_hal.o(.text)
    ss_calc_neccessary_size                  0x000040ff   Thumb Code    28  dumpdrv_hw_hal.o(.text)
    getASN1Next                              0x0000416f   Thumb Code   182  ss_asn1.o(.text)
    setASN1Data                              0x00004225   Thumb Code   186  ss_asn1.o(.text)
    encodeData                               0x000042df   Thumb Code    54  ss_encoder.o(.text)
    decodeData                               0x00004315   Thumb Code    46  ss_encoder.o(.text)
    ss_import_rsa_key                        0x00004343   Thumb Code   300  RSA.o(.text)
    ss_export_rsa_key                        0x0000446f   Thumb Code   128  RSA.o(.text)
    ss_crypto_gen_rsa_key                    0x000044ef   Thumb Code    86  RSA.o(.text)
    ss_crypto_rsa_process_sym_Key            0x00004545   Thumb Code    86  RSA.o(.text)
    ss_crypto_clear_rsa_context              0x0000459b   Thumb Code     6  RSA.o(.text)
    check_FIPS_mode                          0x000045a1   Thumb Code     4  ss_fips.o(.text)
    enable_FIPS_mode                         0x000045a5   Thumb Code    22  ss_fips.o(.text)
    ss_init_crypto_lib                       0x000045cd   Thumb Code    24  ss_CryptoCore_init.o(.text)
    ss_clean_crypto_lib                      0x000045e5   Thumb Code     4  ss_CryptoCore_init.o(.text)
    fips_dsa_builtin_paramgen                0x000045e9   Thumb Code  1158  dsa_gen.o(.text)
    FIPS_dsa_generate_parameters_ex          0x00004a6f   Thumb Code   108  dsa_gen.o(.text)
    fips_dsa_builtin_paramgen2               0x00004adb   Thumb Code  1434  dsa_gen.o(.text)
    fips_dsa_paramgen_check_g                0x00005075   Thumb Code   180  dsa_gen.o(.text)
    FIPS_dsa_generate_key                    0x00005201   Thumb Code    10  dsa_key.o(.text)
    BN_security_bits                         0x0000520b   Thumb Code    82  dsa_lib.o(.text)
    DSA_set_default_method                   0x0000525d   Thumb Code    14  dsa_lib.o(.text)
    DSA_get_default_method                   0x0000526b   Thumb Code    26  dsa_lib.o(.text)
    DSA_new_method                           0x00005285   Thumb Code   132  dsa_lib.o(.text)
    DSA_new                                  0x00005309   Thumb Code     4  dsa_lib.o(.text)
    DSA_set_method                           0x0000530d   Thumb Code    30  dsa_lib.o(.text)
    DSA_free                                 0x0000532b   Thumb Code    94  dsa_lib.o(.text)
    DSA_up_ref                               0x00005389   Thumb Code    18  dsa_lib.o(.text)
    DSA_size                                 0x0000539b   Thumb Code    86  dsa_lib.o(.text)
    DSA_get_ex_new_index                     0x000053f1   Thumb Code    32  dsa_lib.o(.text)
    DSA_set_ex_data                          0x00005411   Thumb Code     6  dsa_lib.o(.text)
    DSA_get_ex_data                          0x00005417   Thumb Code     6  dsa_lib.o(.text)
    DSA_security_bits                        0x0000541d   Thumb Code    26  dsa_lib.o(.text)
    DSA_do_sign                              0x00005437   Thumb Code     6  dsa_sign.o(.text)
    DSA_sign_setup                           0x0000543d   Thumb Code    10  dsa_sign.o(.text)
    DSA_do_verify                            0x00005447   Thumb Code    10  dsa_vrf.o(.text)
    qsee_kdf                                 0x00005451   Thumb Code    90  prxy_services.o(.text)
    qsee_sfs_getSize                         0x000054ab   Thumb Code    50  prxy_services.o(.text)
    qsee_sfs_open                            0x000054dd   Thumb Code    50  prxy_services.o(.text)
    qsee_sfs_close                           0x0000550f   Thumb Code    48  prxy_services.o(.text)
    qsee_sfs_read                            0x0000553f   Thumb Code    64  prxy_services.o(.text)
    qsee_sfs_write                           0x0000557f   Thumb Code    64  prxy_services.o(.text)
    qsee_sfs_seek                            0x000055bf   Thumb Code    64  prxy_services.o(.text)
    qsee_sfs_mkdir                           0x000055ff   Thumb Code    48  prxy_services.o(.text)
    qsee_sfs_rmdir                           0x0000562f   Thumb Code    48  prxy_services.o(.text)
    qsee_sfs_rm                              0x0000565f   Thumb Code    48  prxy_services.o(.text)
    qsee_sfs_error                           0x0000568f   Thumb Code    48  prxy_services.o(.text)
    qsee_sfs_get_file_list                   0x000056bf   Thumb Code    50  prxy_services.o(.text)
    qsee_sfs_clean_file_list                 0x000056f1   Thumb Code    44  prxy_services.o(.text)
    qsee_sfs_is_anti_rollback_enabled        0x0000571d   Thumb Code    46  prxy_services.o(.text)
    qsee_log                                 0x0000574b   Thumb Code   106  prxy_services.o(.text)
    open                                     0x000057b5   Thumb Code    50  prxy_services.o(.text)
    read                                     0x000057e7   Thumb Code    64  prxy_services.o(.text)
    write                                    0x00005827   Thumb Code    64  prxy_services.o(.text)
    close                                    0x00005867   Thumb Code    48  prxy_services.o(.text)
    lstat                                    0x00005897   Thumb Code    50  prxy_services.o(.text)
    mkdir                                    0x000058c9   Thumb Code    50  prxy_services.o(.text)
    frename                                  0x000058fb   Thumb Code    50  prxy_services.o(.text)
    opendir                                  0x0000592d   Thumb Code    46  prxy_services.o(.text)
    readdir                                  0x0000595b   Thumb Code    48  prxy_services.o(.text)
    closedir                                 0x0000598b   Thumb Code    46  prxy_services.o(.text)
    rmdir                                    0x000059b9   Thumb Code    48  prxy_services.o(.text)
    testdir                                  0x000059e9   Thumb Code    48  prxy_services.o(.text)
    sfs_trunc                                0x00005a19   Thumb Code    52  prxy_services.o(.text)
    file_get_partition_free_size             0x00005a4d   Thumb Code    50  prxy_services.o(.text)
    fstat                                    0x00005a7f   Thumb Code    50  prxy_services.o(.text)
    lseek                                    0x00005ab1   Thumb Code    64  prxy_services.o(.text)
    time_getsystime                          0x00005af1   Thumb Code    50  prxy_services.o(.text)
    time_getutcsec                           0x00005b23   Thumb Code    50  prxy_services.o(.text)
    time_gethlosutc                          0x00005b55   Thumb Code    50  prxy_services.o(.text)
    time_is_leap_year                        0x00005b87   Thumb Code    50  prxy_services.o(.text)
    remove                                   0x00005bb9   Thumb Code    50  prxy_services.o(.text)
    unlink                                   0x00005beb   Thumb Code    48  prxy_services.o(.text)
    link                                     0x00005c1b   Thumb Code    50  prxy_services.o(.text)
    telldir                                  0x00005c4d   Thumb Code    50  prxy_services.o(.text)
    fsync                                    0x00005c7f   Thumb Code    50  prxy_services.o(.text)
    openat                                   0x00005cb1   Thumb Code    64  prxy_services.o(.text)
    unlinkat                                 0x00005cf1   Thumb Code    64  prxy_services.o(.text)
    fcntl                                    0x00005d31   Thumb Code    52  prxy_services.o(.text)
    creat                                    0x00005d65   Thumb Code    52  prxy_services.o(.text)
    file_dir_chown_chmod                     0x00005d99   Thumb Code    94  prxy_services.o(.text)
    get_error_number                         0x00005df7   Thumb Code    48  prxy_services.o(.text)
    qsee_hash                                0x00005e27   Thumb Code    36  qsee_crypto_shim.o(.text)
    qsee_hash_init                           0x00005e4b   Thumb Code    34  qsee_crypto_shim.o(.text)
    qsee_hash_reset                          0x00005e6d   Thumb Code    32  qsee_crypto_shim.o(.text)
    qsee_hash_update                         0x00005e8d   Thumb Code    36  qsee_crypto_shim.o(.text)
    qsee_hash_final                          0x00005eb1   Thumb Code    36  qsee_crypto_shim.o(.text)
    qsee_hash_free_ctx                       0x00005ed5   Thumb Code    32  qsee_crypto_shim.o(.text)
    qsee_hash_set_param                      0x00005ef5   Thumb Code    36  qsee_crypto_shim.o(.text)
    qsee_hashcipher_encrypt                  0x00005f19   Thumb Code    58  qsee_crypto_shim.o(.text)
    qsee_hashcipher_decrypt                  0x00005f53   Thumb Code    58  qsee_crypto_shim.o(.text)
    qsee_cipher_init                         0x00005f8d   Thumb Code    34  qsee_crypto_shim.o(.text)
    qsee_cipher_reset                        0x00005faf   Thumb Code    32  qsee_crypto_shim.o(.text)
    qsee_cipher_free_ctx                     0x00005fcf   Thumb Code    32  qsee_crypto_shim.o(.text)
    qsee_cipher_set_param                    0x00005fef   Thumb Code    36  qsee_crypto_shim.o(.text)
    qsee_cipher_get_param                    0x00006013   Thumb Code    36  qsee_crypto_shim.o(.text)
    qsee_cipher_encrypt                      0x00006037   Thumb Code    36  qsee_crypto_shim.o(.text)
    qsee_cipher_decrypt                      0x0000605b   Thumb Code    36  qsee_crypto_shim.o(.text)
    qsee_hmac                                0x0000607f   Thumb Code    36  qsee_crypto_shim.o(.text)
    qsee_hmac_init                           0x000060a3   Thumb Code    34  qsee_crypto_shim.o(.text)
    qsee_hmac_update                         0x000060c5   Thumb Code    36  qsee_crypto_shim.o(.text)
    qsee_hmac_final                          0x000060e9   Thumb Code    36  qsee_crypto_shim.o(.text)
    qsee_hmac_free_ctx                       0x0000610d   Thumb Code    32  qsee_crypto_shim.o(.text)
    qsee_cmac                                0x0000612d   Thumb Code    54  qsee_crypto_shim.o(.text)
    qsee_prng_getdata                        0x00006163   Thumb Code    34  qsee_crypto_shim.o(.text)
    qsee_crypto_lock_engine                  0x00006185   Thumb Code    34  qsee_crypto_shim.o(.text)
    qsee_kdf_shim                            0x000061a7   Thumb Code    34  qsee_crypto_shim.o(.text)
    qsee_set_bandwidth                       0x000061c9   Thumb Code    36  qsee_crypto_shim.o(.text)
    InitPDRandEntropySource                  0x000061ed   Thumb Code    14  pd_rand.o(.text)
    pd_rand                                  0x000061fb   Thumb Code    44  pd_rand.o(.text)
    ASN1_dup                                 0x00006227   Thumb Code   100  a_dup.o(.text)
    ASN1_item_dup                            0x0000628b   Thumb Code    80  a_dup.o(.text)
    ASN1_template_free                       0x000062db   Thumb Code    98  tasn_fre.o(.text)
    ASN1_primitive_free                      0x0000633d   Thumb Code   140  tasn_fre.o(.text)
    ASN1_item_free                           0x00006529   Thumb Code    14  tasn_fre.o(.text)
    ASN1_item_ex_free                        0x00006537   Thumb Code     4  tasn_fre.o(.text)
    asn1_ex_i2c                              0x000068f5   Thumb Code   322  tasn_enc.o(.text)
    ASN1_item_ex_i2d                         0x00006ad9   Thumb Code   650  tasn_enc.o(.text)
    ASN1_item_ndef_i2d                       0x00006de5   Thumb Code     6  tasn_enc.o(.text)
    ASN1_item_i2d                            0x00006deb   Thumb Code     4  tasn_enc.o(.text)
    ASN1_template_i2d                        0x00006def   Thumb Code    14  tasn_enc.o(.text)
    ASN1_template_new                        0x00006e89   Thumb Code    98  tasn_new.o(.text)
    ASN1_primitive_new                       0x00006eeb   Thumb Code   160  tasn_new.o(.text)
    ASN1_item_ex_new                         0x0000712d   Thumb Code     4  tasn_new.o(.text)
    ASN1_item_new                            0x00007131   Thumb Code    26  tasn_new.o(.text)
    CRYPTO_get_ex_data_implementation        0x00007163   Thumb Code    24  ex_data.o(.text)
    CRYPTO_set_ex_data_implementation        0x0000717b   Thumb Code    26  ex_data.o(.text)
    CRYPTO_get_ex_data                       0x000073b1   Thumb Code    38  ex_data.o(.text)
    CRYPTO_set_ex_data                       0x00007499   Thumb Code   108  ex_data.o(.text)
    CRYPTO_ex_data_new_class                 0x000076b5   Thumb Code    30  ex_data.o(.text)
    CRYPTO_cleanup_all_ex_data               0x000076d3   Thumb Code    30  ex_data.o(.text)
    CRYPTO_get_ex_new_index                  0x000076f1   Thumb Code    62  ex_data.o(.text)
    CRYPTO_new_ex_data                       0x0000772f   Thumb Code    44  ex_data.o(.text)
    CRYPTO_dup_ex_data                       0x0000775b   Thumb Code    44  ex_data.o(.text)
    CRYPTO_free_ex_data                      0x00007787   Thumb Code    44  ex_data.o(.text)
    RSA_get_default_method                   0x00007807   Thumb Code    42  rsa_lib.o(.text)
    RSA_new_method                           0x00007831   Thumb Code   158  rsa_lib.o(.text)
    RSA_new                                  0x000078cf   Thumb Code     4  rsa_lib.o(.text)
    RSA_set_default_method                   0x000078d3   Thumb Code    14  rsa_lib.o(.text)
    RSA_get_method                           0x000078e1   Thumb Code     4  rsa_lib.o(.text)
    RSA_set_method                           0x000078e5   Thumb Code    30  rsa_lib.o(.text)
    RSA_free                                 0x00007903   Thumb Code   140  rsa_lib.o(.text)
    RSA_up_ref                               0x0000798f   Thumb Code    18  rsa_lib.o(.text)
    RSA_get_ex_new_index                     0x000079a1   Thumb Code    32  rsa_lib.o(.text)
    RSA_set_ex_data                          0x000079c1   Thumb Code     6  rsa_lib.o(.text)
    RSA_get_ex_data                          0x000079c7   Thumb Code     6  rsa_lib.o(.text)
    RSA_memory_lock                          0x000079cd   Thumb Code   230  rsa_lib.o(.text)
    ERR_put_error                            0x00007ab3   Thumb Code     2  err.o(.text)
    ERR_add_error_data                       0x00007ab5   Thumb Code     2  err.o(.text)
    ERR_add_error_vdata                      0x00007ab7   Thumb Code     2  err.o(.text)
    fips_bn_ctx_init                         0x00007af5   Thumb Code    28  bn_ctx.o(.text)
    fips_bn_ctx_new                          0x00007b29   Thumb Code    68  bn_ctx.o(.text)
    fips_bn_ctx_free                         0x00007bb3   Thumb Code    34  bn_ctx.o(.text)
    fips_bn_ctx_start                        0x00007c3d   Thumb Code    54  bn_ctx.o(.text)
    fips_bn_ctx_end                          0x00007ca7   Thumb Code    46  bn_ctx.o(.text)
    fips_bn_ctx_get                          0x00007d79   Thumb Code    68  bn_ctx.o(.text)
    fips_bn_uadd                             0x00007dbd   Thumb Code   166  bn_add.o(.text)
    fips_bn_usub                             0x00007e63   Thumb Code   264  bn_add.o(.text)
    fips_bn_add                              0x00007f6b   Thumb Code   106  bn_add.o(.text)
    fips_bn_sub                              0x00007fd5   Thumb Code   166  bn_add.o(.text)
    fips_bn_mod_mul_montgomery               0x00008249   Thumb Code   214  bn_mont.o(.text)
    fips_bn_from_montgomery                  0x0000831f   Thumb Code    66  bn_mont.o(.text)
    fips_bn_mont_ctx_init                    0x00008361   Thumb Code    38  bn_mont.o(.text)
    fips_bn_mont_ctx_new                     0x00008387   Thumb Code    44  bn_mont.o(.text)
    fips_bn_mont_ctx_free                    0x000083b3   Thumb Code    50  bn_mont.o(.text)
    fips_bn_mont_ctx_set                     0x000083e5   Thumb Code   348  bn_mont.o(.text)
    fips_bn_mont_ctx_copy                    0x00008541   Thumb Code    80  bn_mont.o(.text)
    fips_bn_mont_ctx_set_locked              0x00008591   Thumb Code    50  bn_mont.o(.text)
    fips_bn_div                              0x000085c3   Thumb Code   940  bn_div.o(.text)
    fips_bn_lshift1                          0x0000896f   Thumb Code   134  bn_shift.o(.text)
    fips_bn_rshift1                          0x000089f5   Thumb Code   162  bn_shift.o(.text)
    fips_bn_lshift                           0x00008a97   Thumb Code   206  bn_shift.o(.text)
    fips_bn_rshift                           0x00008b65   Thumb Code   202  bn_shift.o(.text)
    fips_bn_gencb_call                       0x00008c2f   Thumb Code    60  bn_prime.o(.text)
    FIPS_bn_is_prime_fasttest_ex             0x00008d1f   Thumb Code   642  bn_prime.o(.text)
    FIPS_bn_generate_prime_ex                0x00009209   Thumb Code   406  bn_prime.o(.text)
    FIPS_bn_is_prime_ex                      0x0000939f   Thumb Code    12  bn_prime.o(.text)
    fips_bn_gcd                              0x00009487   Thumb Code   118  bn_gcd.o(.text)
    fips_int_bn_mod_inverse                  0x000096bd   Thumb Code  1096  bn_gcd.o(.text)
    fips_bn_mod_inverse                      0x00009b05   Thumb Code    44  bn_gcd.o(.text)
    EC_POINT_set_compressed_coordinates_GFp  0x00009b31   Thumb Code   120  ec_oct.o(.text)
    EC_POINT_point2oct                       0x00009ba9   Thumb Code   152  ec_oct.o(.text)
    EC_POINT_oct2point                       0x00009c41   Thumb Code   120  ec_oct.o(.text)
    FIPS_ecdh_compute_key                    0x00009cb9   Thumb Code    38  ech_key.o(.text)
    FIPS_rsa_size                            0x00009cdf   Thumb Code    20  rsa_crpt.o(.text)
    FIPS_rsa_public_encrypt                  0x00009cf3   Thumb Code    22  rsa_crpt.o(.text)
    FIPS_rsa_private_encrypt                 0x00009d09   Thumb Code    22  rsa_crpt.o(.text)
    FIPS_rsa_private_decrypt                 0x00009d1f   Thumb Code    22  rsa_crpt.o(.text)
    FIPS_rsa_public_decrypt                  0x00009d35   Thumb Code    22  rsa_crpt.o(.text)
    FIPS_rsa_flags                           0x00009d4b   Thumb Code    12  rsa_crpt.o(.text)
    FIPS_rsa_blinding_off                    0x00009d57   Thumb Code    30  rsa_crpt.o(.text)
    fips_rsa_setup_blinding                  0x00009dff   Thumb Code   286  rsa_crpt.o(.text)
    FIPS_rsa_blinding_on                     0x00009f1d   Thumb Code    48  rsa_crpt.o(.text)
    FIPS_rand_set_bits                       0x00009f4d   Thumb Code    14  fips_rand_lib.o(.text)
    FIPS_rand_set_method                     0x00009f5b   Thumb Code    80  fips_rand_lib.o(.text)
    FIPS_rand_get_method                     0x00009fab   Thumb Code    14  fips_rand_lib.o(.text)
    FIPS_rand_seed                           0x00009fb9   Thumb Code    68  fips_rand_lib.o(.text)
    FIPS_rand_add                            0x00009ffd   Thumb Code   102  fips_rand_lib.o(.text)
    FIPS_rand_bytes                          0x0000a063   Thumb Code    70  fips_rand_lib.o(.text)
    FIPS_rand_pseudo_bytes                   0x0000a0a9   Thumb Code    72  fips_rand_lib.o(.text)
    FIPS_rand_status                         0x0000a0f1   Thumb Code    62  fips_rand_lib.o(.text)
    FIPS_rand_strength                       0x0000a12f   Thumb Code    66  fips_rand_lib.o(.text)
    qsee_dcache_inval_region                 0x0000a171   Thumb Code    34  qsee_cache_shim.o(.text)
    qsee_dcache_flush_region                 0x0000a193   Thumb Code    34  qsee_cache_shim.o(.text)
    qsee_dcache_clean_region                 0x0000a1b5   Thumb Code    34  qsee_cache_shim.o(.text)
    drbg_ossl_init                           0x0000a425   Thumb Code   134  ctr_drbg_ossl.o(.text)
    libc_init                                0x0000a4f5   Thumb Code     4  libc_functions.o(.text)
    qsee_realloc                             0x0000a4f9   Thumb Code    18  libc_functions.o(.text)
    ECDH_set_default_method                  0x0000a50b   Thumb Code    14  ech_lib.o(.text)
    ECDH_get_default_method                  0x0000a519   Thumb Code    26  ech_lib.o(.text)
    ASN1_OBJECT_free                         0x0000a533   Thumb Code    80  a_object.o(.text)
    ASN1_OBJECT_new                          0x0000a583   Thumb Code    60  a_object.o(.text)
    c2i_ASN1_OBJECT                          0x0000a5bf   Thumb Code   244  a_object.o(.text)
    asn1_get_choice_selector                 0x0000a6b3   Thumb Code    10  tasn_utl.o(.text)
    asn1_set_choice_selector                 0x0000a6bd   Thumb Code    12  tasn_utl.o(.text)
    asn1_do_lock                             0x0000a6c9   Thumb Code    52  tasn_utl.o(.text)
    asn1_enc_init                            0x0000a71d   Thumb Code    22  tasn_utl.o(.text)
    asn1_enc_free                            0x0000a733   Thumb Code    32  tasn_utl.o(.text)
    asn1_enc_save                            0x0000a753   Thumb Code    72  tasn_utl.o(.text)
    asn1_enc_restore                         0x0000a79b   Thumb Code    56  tasn_utl.o(.text)
    asn1_get_field_ptr                       0x0000a7d3   Thumb Code    16  tasn_utl.o(.text)
    asn1_do_adb                              0x0000a7e3   Thumb Code   124  tasn_utl.o(.text)
    ASN1_TYPE_get                            0x0000a85f   Thumb Code    16  a_type.o(.text)
    ASN1_TYPE_set                            0x0000a86f   Thumb Code    48  a_type.o(.text)
    ASN1_TYPE_set1                           0x0000a89f   Thumb Code    76  a_type.o(.text)
    ASN1_TYPE_cmp                            0x0000a8eb   Thumb Code    80  a_type.o(.text)
    ASN1_INTEGER_dup                         0x0000a93b   Thumb Code     4  a_int.o(.text)
    ASN1_INTEGER_cmp                         0x0000a93f   Thumb Code    42  a_int.o(.text)
    i2c_ASN1_INTEGER                         0x0000a969   Thumb Code   238  a_int.o(.text)
    c2i_ASN1_INTEGER                         0x0000aa57   Thumb Code   286  a_int.o(.text)
    d2i_ASN1_UINTEGER                        0x0000ab75   Thumb Code   222  a_int.o(.text)
    ASN1_INTEGER_set                         0x0000ac53   Thumb Code   170  a_int.o(.text)
    ASN1_INTEGER_get                         0x0000acfd   Thumb Code   106  a_int.o(.text)
    BN_to_ASN1_INTEGER                       0x0000ad67   Thumb Code   170  a_int.o(.text)
    ASN1_INTEGER_to_BN                       0x0000ae11   Thumb Code    58  a_int.o(.text)
    ASN1_BIT_STRING_set                      0x0000ae4b   Thumb Code     4  a_bitstr.o(.text)
    i2c_ASN1_BIT_STRING                      0x0000ae4f   Thumb Code   196  a_bitstr.o(.text)
    c2i_ASN1_BIT_STRING                      0x0000af13   Thumb Code   202  a_bitstr.o(.text)
    ASN1_BIT_STRING_set_bit                  0x0000afdd   Thumb Code   214  a_bitstr.o(.text)
    ASN1_BIT_STRING_get_bit                  0x0000b0b3   Thumb Code    56  a_bitstr.o(.text)
    ASN1_BIT_STRING_check                    0x0000b0eb   Thumb Code    72  a_bitstr.o(.text)
    OPENSSL_add_all_algorithms_noconf        0x0000b133   Thumb Code    14  c_all.o(.text)
    EVP_add_digest                           0x0000b141   Thumb Code   114  names.o(.text)
    EVP_get_cipherbyname                     0x0000b1b3   Thumb Code     6  names.o(.text)
    EVP_get_digestbyname                     0x0000b1b9   Thumb Code     6  names.o(.text)
    EVP_MD_block_size                        0x0000b1bf   Thumb Code     4  evp_lib.o(.text)
    EVP_MD_type                              0x0000b1c3   Thumb Code     4  evp_lib.o(.text)
    EVP_MD_pkey_type                         0x0000b1c7   Thumb Code     4  evp_lib.o(.text)
    EVP_MD_size                              0x0000b1cb   Thumb Code    30  evp_lib.o(.text)
    EVP_MD_flags                             0x0000b1e9   Thumb Code     4  evp_lib.o(.text)
    EVP_MD_CTX_md                            0x0000b1ed   Thumb Code    10  evp_lib.o(.text)
    EVP_MD_CTX_set_flags                     0x0000b1f7   Thumb Code     8  evp_lib.o(.text)
    EVP_MD_CTX_clear_flags                   0x0000b1ff   Thumb Code    10  evp_lib.o(.text)
    EVP_MD_CTX_test_flags                    0x0000b209   Thumb Code     6  evp_lib.o(.text)
    EVP_CIPHER_CTX_set_flags                 0x0000b20f   Thumb Code     8  evp_lib.o(.text)
    EVP_CIPHER_CTX_clear_flags               0x0000b217   Thumb Code    10  evp_lib.o(.text)
    EVP_CIPHER_CTX_test_flags                0x0000b221   Thumb Code     6  evp_lib.o(.text)
    sk_set_cmp_func                          0x0000b227   Thumb Code    16  stack.o(.text)
    sk_free                                  0x0000b237   Thumb Code    28  stack.o(.text)
    sk_new                                   0x0000b253   Thumb Code    90  stack.o(.text)
    sk_dup                                   0x0000b2ad   Thumb Code    82  stack.o(.text)
    sk_new_null                              0x0000b2ff   Thumb Code     4  stack.o(.text)
    sk_insert                                0x0000b303   Thumb Code   112  stack.o(.text)
    sk_delete                                0x0000b373   Thumb Code    72  stack.o(.text)
    sk_delete_ptr                            0x0000b3bb   Thumb Code    48  stack.o(.text)
    sk_sort                                  0x0000b3eb   Thumb Code    32  stack.o(.text)
    sk_find                                  0x0000b47b   Thumb Code     4  stack.o(.text)
    sk_find_ex                               0x0000b47f   Thumb Code     4  stack.o(.text)
    sk_push                                  0x0000b483   Thumb Code     4  stack.o(.text)
    sk_unshift                               0x0000b487   Thumb Code     4  stack.o(.text)
    sk_shift                                 0x0000b48b   Thumb Code    20  stack.o(.text)
    sk_pop                                   0x0000b49f   Thumb Code    20  stack.o(.text)
    sk_zero                                  0x0000b4b3   Thumb Code    28  stack.o(.text)
    sk_pop_free                              0x0000b4cf   Thumb Code    46  stack.o(.text)
    sk_num                                   0x0000b4fd   Thumb Code    12  stack.o(.text)
    sk_value                                 0x0000b509   Thumb Code    24  stack.o(.text)
    sk_set                                   0x0000b521   Thumb Code    26  stack.o(.text)
    sk_is_sorted                             0x0000b53b   Thumb Code    10  stack.o(.text)
    BUF_MEM_grow_clean                       0x0000b545   Thumb Code   186  buffer.o(.text)
    ec_GFp_simple_set_compressed_coordinates 0x0000b5ff   Thumb Code   640  ecp_oct.o(.text)
    ec_GFp_simple_point2oct                  0x0000b87f   Thumb Code   534  ecp_oct.o(.text)
    ec_GFp_simple_oct2point                  0x0000ba95   Thumb Code   518  ecp_oct.o(.text)
    fips_bn_recp_ctx_init                    0x0000bc9b   Thumb Code    26  bn_recp.o(.text)
    fips_bn_recp_ctx_new                     0x0000bcb5   Thumb Code    42  bn_recp.o(.text)
    fips_bn_recp_ctx_free                    0x0000bcdf   Thumb Code    42  bn_recp.o(.text)
    fips_bn_recp_ctx_set                     0x0000bd09   Thumb Code    46  bn_recp.o(.text)
    fips_bn_reciprocal                       0x0000bd37   Thumb Code    74  bn_recp.o(.text)
    fips_bn_div_recp                         0x0000bd81   Thumb Code   380  bn_recp.o(.text)
    fips_bn_mod_mul_reciprocal               0x0000befd   Thumb Code   100  bn_recp.o(.text)
    fips_bn_sub_part_words                   0x0000bf61   Thumb Code   348  bn_mul.o(.text)
    fips_bn_add_part_words                   0x0000c0bd   Thumb Code   502  bn_mul.o(.text)
    fips_bn_mul_normal                       0x0000c2b3   Thumb Code   166  bn_mul.o(.text)
    fips_bn_mul_recursive                    0x0000c359   Thumb Code   748  bn_mul.o(.text)
    fips_bn_mul_part_recursive               0x0000c645   Thumb Code   764  bn_mul.o(.text)
    fips_bn_mul_low_normal                   0x0000c941   Thumb Code   112  bn_mul.o(.text)
    fips_bn_mul_low_recursive                0x0000c9b1   Thumb Code   180  bn_mul.o(.text)
    fips_bn_mul_high                         0x0000ca65   Thumb Code   744  bn_mul.o(.text)
    fips_bn_mul                              0x0000cd4d   Thumb Code   500  bn_mul.o(.text)
    fips_bn_sqr_normal                       0x0000cf41   Thumb Code   136  bn_sqr.o(.text)
    fips_bn_sqr_recursive                    0x0000cfc9   Thumb Code   276  bn_sqr.o(.text)
    fips_bn_sqr                              0x0000d0dd   Thumb Code   288  bn_sqr.o(.text)
    fips_bn_mul_add_words                    0x0000d1fd   Thumb Code   156  bn_asm.o(.text)
    fips_bn_mul_words                        0x0000d299   Thumb Code   124  bn_asm.o(.text)
    fips_bn_sqr_words                        0x0000d315   Thumb Code    96  bn_asm.o(.text)
    fips_bn_div_words                        0x0000d375   Thumb Code   184  bn_asm.o(.text)
    fips_bn_add_words                        0x0000d42d   Thumb Code   196  bn_asm.o(.text)
    fips_bn_sub_words                        0x0000d4f1   Thumb Code   222  bn_asm.o(.text)
    fips_bn_mul_comba8                       0x0000d5cf   Thumb Code  1690  bn_asm.o(.text)
    fips_bn_mul_comba4                       0x0000dc69   Thumb Code   424  bn_asm.o(.text)
    fips_bn_sqr_comba8                       0x0000de11   Thumb Code  1726  bn_asm.o(.text)
    fips_bn_sqr_comba4                       0x0000e4cf   Thumb Code   420  bn_asm.o(.text)
    fips_bn_blinding_free                    0x0000e673   Thumb Code    52  bn_blind.o(.text)
    fips_bn_blinding_new                     0x0000e6a7   Thumb Code   152  bn_blind.o(.text)
    fips_bn_blinding_create_param            0x0000e73f   Thumb Code   246  bn_blind.o(.text)
    fips_bn_blinding_update                  0x0000e835   Thumb Code   144  bn_blind.o(.text)
    fips_bn_blinding_convert_ex              0x0000e8c5   Thumb Code   110  bn_blind.o(.text)
    fips_bn_blinding_convert                 0x0000e933   Thumb Code     8  bn_blind.o(.text)
    fips_bn_blinding_invert_ex               0x0000e93b   Thumb Code    56  bn_blind.o(.text)
    fips_bn_blinding_invert                  0x0000e973   Thumb Code     8  bn_blind.o(.text)
    fips_bn_blinding_get_thread_id           0x0000e97b   Thumb Code     4  bn_blind.o(.text)
    fips_bn_blinding_set_thread_id           0x0000e97f   Thumb Code     4  bn_blind.o(.text)
    fips_bn_blinding_thread_id               0x0000e983   Thumb Code     4  bn_blind.o(.text)
    fips_bn_blinding_get_flags               0x0000e987   Thumb Code     4  bn_blind.o(.text)
    fips_bn_blinding_set_flags               0x0000e98b   Thumb Code     4  bn_blind.o(.text)
    fips_bn_mod_word                         0x0000e98f   Thumb Code    52  bn_word.o(.text)
    fips_bn_div_word                         0x0000e9c3   Thumb Code   132  bn_word.o(.text)
    fips_bn_sub_word                         0x0000ea47   Thumb Code   132  bn_word.o(.text)
    fips_bn_add_word                         0x0000eacb   Thumb Code   154  bn_word.o(.text)
    fips_bn_mul_word                         0x0000eb65   Thumb Code    78  bn_word.o(.text)
    fips_sha1_update                         0x0000ebb3   Thumb Code   174  sha1dgst.o(.text)
    fips_sha1_transform                      0x0000ec61   Thumb Code     6  sha1dgst.o(.text)
    fips_sha1_final                          0x0000ec67   Thumb Code   234  sha1dgst.o(.text)
    fips_sha1_init                           0x0000ed51   Thumb Code    66  sha1dgst.o(.text)
    fips_crypto_threadid_current             0x0000ed93   Thumb Code     8  thr_id.o(.text)
    fips_crypto_threadid_cpy                 0x0000ed9b   Thumb Code     8  thr_id.o(.text)
    fips_crypto_threadid_cmp                 0x0000eda3   Thumb Code     6  thr_id.o(.text)
    FIPS_openssldie                          0x0000eda9   Thumb Code     2  cryptlib.o(.text)
    FIPS_get_default_drbg                    0x0000edab   Thumb Code    12  fips_drbg_rand.o(.text)
    FIPS_drbg_method                         0x0000eec9   Thumb Code    12  fips_drbg_rand.o(.text)
    CTR_DRBG_Instantiate                     0x0000f157   Thumb Code   250  ctr_drbg.o(.text)
    CTR_DRBG_Reseed                          0x0000f251   Thumb Code   180  ctr_drbg.o(.text)
    CTR_DRBG_Generate                        0x0000f305   Thumb Code   378  ctr_drbg.o(.text)
    BN_kronecker                             0x0000f47f   Thumb Code   490  bn_kron.o(.text)
    OpenSSL_add_all_ciphers                  0x0000f669   Thumb Code     2  c_allc.o(.text)
    OBJ_NAME_init                            0x0000f6ed   Thumb Code    56  o_names.o(.text)
    OBJ_NAME_get                             0x0000f725   Thumb Code   116  o_names.o(.text)
    OBJ_NAME_add                             0x0000f799   Thumb Code   148  o_names.o(.text)
    OBJ_dup                                  0x0000f82d   Thumb Code   278  obj_lib.o(.text)
    OBJ_cmp                                  0x0000f943   Thumb Code    20  obj_lib.o(.text)
    FIPS_ec_group_new_curve_gfp              0x0000f957   Thumb Code    68  ec_cvt.o(.text)
    fips_rsa_padding_add_sslv23              0x0000f99b   Thumb Code   150  rsa_ssl.o(.text)
    fips_rsa_padding_check_sslv23            0x0000fa31   Thumb Code   210  rsa_ssl.o(.text)
    fips_rsa_padding_add_x931                0x0000fb03   Thumb Code   112  rsa_x931.o(.text)
    fips_rsa_padding_check_x931              0x0000fb73   Thumb Code   160  rsa_x931.o(.text)
    fips_rsa_x931_hash_id                    0x0000fc13   Thumb Code    44  rsa_x931.o(.text)
    fips_pkcs1_mgf1                          0x0000fc3f   Thumb Code   196  rsa_oaep.o(.text)
    fips_rsa_padding_add_pkcs1_oaep          0x0000fd21   Thumb Code   334  rsa_oaep.o(.text)
    fips_rsa_padding_check_pkcs1_oaep        0x0000fe6f   Thumb Code   372  rsa_oaep.o(.text)
    fips_rsa_padding_add_none                0x0000ffe3   Thumb Code    80  rsa_none.o(.text)
    fips_rsa_padding_check_none              0x00010033   Thumb Code    60  rsa_none.o(.text)
    fips_rsa_padding_add_pkcs1_type_1        0x0001006f   Thumb Code    86  rsa_pk1.o(.text)
    fips_rsa_padding_check_pkcs1_type_1      0x000100c5   Thumb Code   194  rsa_pk1.o(.text)
    fips_rsa_padding_add_pkcs1_type_2        0x00010187   Thumb Code   136  rsa_pk1.o(.text)
    fips_rsa_padding_check_pkcs1_type_2      0x0001020f   Thumb Code   162  rsa_pk1.o(.text)
    FIPS_lock                                0x000102b1   Thumb Code    24  fips_lck.o(.text)
    FIPS_set_locking_callbacks               0x000102c9   Thumb Code    16  fips_lck.o(.text)
    FIPS_add_lock                            0x000102d9   Thumb Code    42  fips_lck.o(.text)
    FIPS_malloc                              0x0001030b   Thumb Code    14  fips_mem.o(.text)
    FIPS_free                                0x00010319   Thumb Code    14  fips_mem.o(.text)
    FIPS_set_malloc_callbacks                0x00010327   Thumb Code    16  fips_mem.o(.text)
    FIPS_put_error                           0x0001035d   Thumb Code    30  fips_err.o(.text)
    FIPS_add_error_data                      0x0001037b   Thumb Code    36  fips_err.o(.text)
    FIPS_set_error_callbacks                 0x0001039f   Thumb Code    16  fips_err.o(.text)
    FIPS_selftest_ecdh                       0x000103af   Thumb Code   510  fips_ecdh_selftest.o(.text)
    FIPS_selftest_ecdsa                      0x000105d9   Thumb Code   224  fips_ecdsa_selftest.o(.text)
    FIPS_selftest_hmac                       0x000106dd   Thumb Code   306  fips_hmac_selftest.o(.text)
    fips_drbg_ctr_init                       0x00010d6d   Thumb Code   198  fips_drbg_ctr.o(.text)
    fips_drbg_kat                            0x00011731   Thumb Code    72  fips_drbg_selftest.o(.text)
    FIPS_drbg_health_check                   0x00011779   Thumb Code    88  fips_drbg_selftest.o(.text)
    FIPS_selftest_drbg                       0x000117d1   Thumb Code   124  fips_drbg_selftest.o(.text)
    FIPS_selftest_drbg_all                   0x0001184d   Thumb Code   144  fips_drbg_selftest.o(.text)
    FIPS_selftest_x931                       0x00012677   Thumb Code   132  fips_rand_selftest.o(.text)
    FIPS_selftest_aes                        0x000126fb   Thumb Code   114  fips_aes_selftest.o(.text)
    FIPS_selftest_aes_ccm                    0x0001276d   Thumb Code   536  fips_aes_selftest.o(.text)
    FIPS_selftest_aes_gcm                    0x00012985   Thumb Code   528  fips_aes_selftest.o(.text)
    FIPS_selftest_aes_xts                    0x00012b95   Thumb Code   146  fips_aes_selftest.o(.text)
    FIPS_selftest_cmac                       0x00012c27   Thumb Code   318  fips_cmac_selftest.o(.text)
    FIPS_selftest_des                        0x00012d65   Thumb Code   112  fips_des_selftest.o(.text)
    FIPS_evp_des_ede_cbc                     0x0001308d   Thumb Code    12  e_des3.o(.text)
    FIPS_evp_des_ede_cfb64                   0x00013099   Thumb Code    12  e_des3.o(.text)
    FIPS_evp_des_ede_ofb                     0x000130a5   Thumb Code    12  e_des3.o(.text)
    FIPS_evp_des_ede_ecb                     0x000130b1   Thumb Code    12  e_des3.o(.text)
    FIPS_evp_des_ede3_cbc                    0x000130bd   Thumb Code    12  e_des3.o(.text)
    FIPS_evp_des_ede3_cfb64                  0x000130c9   Thumb Code    12  e_des3.o(.text)
    FIPS_evp_des_ede3_ofb                    0x000130d5   Thumb Code    12  e_des3.o(.text)
    FIPS_evp_des_ede3_ecb                    0x000130e1   Thumb Code    12  e_des3.o(.text)
    FIPS_evp_des_ede3_cfb1                   0x000130ed   Thumb Code    12  e_des3.o(.text)
    FIPS_evp_des_ede3_cfb8                   0x000130f9   Thumb Code    12  e_des3.o(.text)
    FIPS_evp_des_ede                         0x000131a5   Thumb Code    12  e_des3.o(.text)
    FIPS_evp_des_ede3                        0x000131b1   Thumb Code    12  e_des3.o(.text)
    fips_rsa_verify_pkcs1_pss_mgf1           0x00013283   Thumb Code   534  rsa_pss.o(.text)
    fips_rsa_verify_pkcs1_pss                0x00013499   Thumb Code    28  rsa_pss.o(.text)
    fips_rsa_padding_add_pkcs1_pss_mgf1      0x000134b5   Thumb Code   422  rsa_pss.o(.text)
    fips_rsa_padding_add_pkcs1_pss           0x0001365b   Thumb Code    24  rsa_pss.o(.text)
    FIPS_rsa_new                             0x00013673   Thumb Code    54  fips_rsa_lib.o(.text)
    FIPS_rsa_free                            0x000136a9   Thumb Code   110  fips_rsa_lib.o(.text)
    fips__shadow_des_check_key               0x00013717   Thumb Code    12  set_key.o(.text)
    fips_des_set_odd_parity                  0x00013723   Thumb Code    26  set_key.o(.text)
    FIPS_des_check_key_parity                0x0001373d   Thumb Code    36  set_key.o(.text)
    fips_des_is_weak_key                     0x00013761   Thumb Code    44  set_key.o(.text)
    fips_des_set_key_unchecked               0x0001378d   Thumb Code   436  set_key.o(.text)
    fips_des_set_key_checked                 0x00013941   Thumb Code    46  set_key.o(.text)
    fips_des_set_key                         0x0001396f   Thumb Code    30  set_key.o(.text)
    fips_des_key_sched                       0x0001398d   Thumb Code     2  set_key.o(.text)
    fips_des_encrypt1                        0x0001398f   Thumb Code  4816  des_enc.o(.text)
    fips_des_encrypt2                        0x00014c5f   Thumb Code  4694  des_enc.o(.text)
    fips_des_encrypt3                        0x00015eb5   Thumb Code   196  des_enc.o(.text)
    fips_des_decrypt3                        0x00015f79   Thumb Code   194  des_enc.o(.text)
    fips_des_ncbc_encrypt                    0x0001603b   Thumb Code   818  des_enc.o(.text)
    fips_des_ede3_cbc_encrypt                0x0001636d   Thumb Code   792  des_enc.o(.text)
    fips_des_ede3_ofb64_encrypt              0x00016685   Thumb Code   322  ofb64ede.o(.text)
    fips_des_ede3_cfb64_encrypt              0x000167c7   Thumb Code   358  cfb64ede.o(.text)
    fips_des_ede3_cfb_encrypt                0x0001692d   Thumb Code  1062  cfb64ede.o(.text)
    fips_des_ecb3_encrypt                    0x00016d53   Thumb Code   130  ecb3_enc.o(.text)
    fips_crypto_ofb128_encrypt               0x00016dd5   Thumb Code   206  ofb128.o(.text)
    fips_crypto_ccm128_init                  0x00016ea3   Thumb Code    60  ccm128.o(.text)
    fips_crypto_ccm128_setiv                 0x00016edf   Thumb Code    60  ccm128.o(.text)
    fips_crypto_ccm128_aad                   0x00016f1b   Thumb Code   180  ccm128.o(.text)
    fips_crypto_ccm128_encrypt               0x00016fe9   Thumb Code   512  ccm128.o(.text)
    fips_crypto_ccm128_decrypt               0x000171e9   Thumb Code   336  ccm128.o(.text)
    fips_crypto_ccm128_encrypt_ccm64         0x00017369   Thumb Code   348  ccm128.o(.text)
    fips_crypto_ccm128_decrypt_ccm64         0x000174c5   Thumb Code   272  ccm128.o(.text)
    fips_crypto_ccm128_tag                   0x000175d5   Thumb Code    40  ccm128.o(.text)
    fips_crypto_xts128_encrypt               0x000175fd   Thumb Code   710  xts128.o(.text)
    fips_crypto_ctr128_encrypt               0x0001790d   Thumb Code   224  ctr128.o(.text)
    fips_crypto_ctr128_encrypt_ctr32         0x00017a03   Thumb Code   226  ctr128.o(.text)
    fips_crypto_cfb128_encrypt               0x00017ae5   Thumb Code   414  cfb128.o(.text)
    fips_crypto_cfb128_1_encrypt             0x00017d6d   Thumb Code   156  cfb128.o(.text)
    fips_crypto_cfb128_8_encrypt             0x00017e09   Thumb Code    62  cfb128.o(.text)
    fips_crypto_cbc128_encrypt               0x00017e47   Thumb Code   188  cbc128.o(.text)
    fips_crypto_cbc128_decrypt               0x00017f03   Thumb Code   312  cbc128.o(.text)
    __aeabi_llsr                             0x0001803b   Thumb Code     0  llushr.o(.text)
    _ll_ushift_r                             0x0001803b   Thumb Code    38  llushr.o(.text)
    _printf_pre_padding                      0x00018061   Thumb Code    46  _printf_pad.o(.text)
    _printf_post_padding                     0x0001808f   Thumb Code    36  _printf_pad.o(.text)
    _printf_str                              0x000180b3   Thumb Code    82  _printf_str.o(.text)
    _is_digit                                0x00018105   Thumb Code    14  __printf_wp.o(i._is_digit)
    _printf_n                                0x00018113   Thumb Code     0  _printf_n.o(.ARM.Collect$$_printf_percent$$00000001)
    _printf_percent                          0x00018113   Thumb Code     0  _printf_percent.o(.ARM.Collect$$_printf_percent$$00000000)
    _printf_p                                0x00018119   Thumb Code     0  _printf_p.o(.ARM.Collect$$_printf_percent$$00000002)
    _printf_f                                0x0001811f   Thumb Code     0  _printf_f.o(.ARM.Collect$$_printf_percent$$00000003)
    _printf_e                                0x00018125   Thumb Code     0  _printf_e.o(.ARM.Collect$$_printf_percent$$00000004)
    _printf_g                                0x0001812b   Thumb Code     0  _printf_g.o(.ARM.Collect$$_printf_percent$$00000005)
    _printf_a                                0x00018131   Thumb Code     0  _printf_a.o(.ARM.Collect$$_printf_percent$$00000006)
    _printf_ll                               0x00018137   Thumb Code     0  _printf_ll.o(.ARM.Collect$$_printf_percent$$00000007)
    _printf_i                                0x00018141   Thumb Code     0  _printf_i.o(.ARM.Collect$$_printf_percent$$00000008)
    _printf_d                                0x00018147   Thumb Code     0  _printf_d.o(.ARM.Collect$$_printf_percent$$00000009)
    _printf_u                                0x0001814d   Thumb Code     0  _printf_u.o(.ARM.Collect$$_printf_percent$$0000000A)
    _printf_o                                0x00018153   Thumb Code     0  _printf_o.o(.ARM.Collect$$_printf_percent$$0000000B)
    _printf_x                                0x00018159   Thumb Code     0  _printf_x.o(.ARM.Collect$$_printf_percent$$0000000C)
    _printf_lli                              0x0001815f   Thumb Code     0  _printf_lli.o(.ARM.Collect$$_printf_percent$$0000000D)
    _printf_lld                              0x00018165   Thumb Code     0  _printf_lld.o(.ARM.Collect$$_printf_percent$$0000000E)
    _printf_llu                              0x0001816b   Thumb Code     0  _printf_llu.o(.ARM.Collect$$_printf_percent$$0000000F)
    _printf_llo                              0x00018171   Thumb Code     0  _printf_llo.o(.ARM.Collect$$_printf_percent$$00000010)
    _printf_llx                              0x00018177   Thumb Code     0  _printf_llx.o(.ARM.Collect$$_printf_percent$$00000011)
    _printf_l                                0x0001817d   Thumb Code     0  _printf_l.o(.ARM.Collect$$_printf_percent$$00000012)
    _printf_c                                0x00018187   Thumb Code     0  _printf_c.o(.ARM.Collect$$_printf_percent$$00000013)
    _printf_s                                0x0001818d   Thumb Code     0  _printf_s.o(.ARM.Collect$$_printf_percent$$00000014)
    _printf_lc                               0x00018193   Thumb Code     0  _printf_lc.o(.ARM.Collect$$_printf_percent$$00000015)
    _printf_ls                               0x00018199   Thumb Code     0  _printf_ls.o(.ARM.Collect$$_printf_percent$$00000016)
    _printf_percent_end                      0x0001819f   Thumb Code     0  _printf_percent_end.o(.ARM.Collect$$_printf_percent$$00000017)
    qsort                                    0x00018381   Thumb Code   132  qsortnoex.o(.text)
    strchr                                   0x00018405   Thumb Code    20  strchr.o(.text)
    strstr                                   0x00018419   Thumb Code    36  strstr.o(.text)
    memcmp                                   0x0001843d   Thumb Code    88  memcmp.o(.text)
    strcpy                                   0x00018495   Thumb Code    70  strcpy.o(.text)
    strlen                                   0x000184db   Thumb Code    58  strlen.o(.text)
    __aeabi_memset                           0x00018515   Thumb Code    16  aeabi_memset.o(.text)
    __aeabi_memclr                           0x00018525   Thumb Code     0  rt_memclr.o(.text)
    __rt_memclr                              0x00018525   Thumb Code    68  rt_memclr.o(.text)
    _memset                                  0x00018529   Thumb Code     0  rt_memclr.o(.text)
    __aeabi_memclr4                          0x00018569   Thumb Code     0  rt_memclr_w.o(.text)
    __aeabi_memclr8                          0x00018569   Thumb Code     0  rt_memclr_w.o(.text)
    __rt_memclr_w                            0x00018569   Thumb Code    78  rt_memclr_w.o(.text)
    _memset_w                                0x0001856d   Thumb Code     0  rt_memclr_w.o(.text)
    __aeabi_uread4                           0x000185b7   Thumb Code     0  uread4.o(.text)
    __rt_uread4                              0x000185b7   Thumb Code    22  uread4.o(.text)
    __aeabi_uwrite4                          0x000185cd   Thumb Code     0  uwrite4.o(.text)
    __rt_uwrite4                             0x000185cd   Thumb Code    22  uwrite4.o(.text)
    __aeabi_drsub                            0x000185e3   Thumb Code     0  daddsub_clz.o(x$fpl$drsb)
    _drsb                                    0x000185e3   Thumb Code    22  daddsub_clz.o(x$fpl$drsb)
    __aeabi_i2d                              0x000185f9   Thumb Code     0  dflt_clz.o(x$fpl$dflt)
    _dflt                                    0x000185f9   Thumb Code    46  dflt_clz.o(x$fpl$dflt)
    __aeabi_cdrcmple                         0x00018627   Thumb Code     0  drleqf.o(x$fpl$drleqf)
    _drcmple                                 0x00018627   Thumb Code   108  drleqf.o(x$fpl$drleqf)
    _printf_truncate_signed                  0x00018693   Thumb Code    18  _printf_truncate.o(.text)
    _printf_truncate_unsigned                0x000186a5   Thumb Code    18  _printf_truncate.o(.text)
    _printf_int_common                       0x000186b7   Thumb Code   184  _printf_intcommon.o(.text)
    _printf_charcount                        0x0001876f   Thumb Code    42  _printf_charcount.o(.text)
    _sputc                                   0x00018799   Thumb Code    10  _sputc.o(.text)
    _snputc                                  0x000187a3   Thumb Code    16  _snputc.o(.text)
    _printf_cs_common                        0x000187b3   Thumb Code    20  _printf_char.o(.text)
    _printf_char                             0x000187c7   Thumb Code    16  _printf_char.o(.text)
    _printf_string                           0x000187d7   Thumb Code     8  _printf_char.o(.text)
    __fpl_dcmp_Inf                           0x000187df   Thumb Code    24  dcmpi.o(x$fpl$dcmpinf)
    __rt_lib_init_cpp_2                      0x000187df   Thumb Code     0  libinit2.o(.ARM.Collect$$libinit$$00000030)
    __rt_lib_init_heap_2                     0x000187df   Thumb Code     0  libinit2.o(.ARM.Collect$$libinit$$00000008)
    __rt_lib_init_lc_ctype_2                 0x000187df   Thumb Code     0  libinit2.o(.ARM.Collect$$libinit$$00000011)
    __rt_lib_init_lc_numeric_2               0x000187df   Thumb Code     0  libinit2.o(.ARM.Collect$$libinit$$00000015)
    __rt_lib_init_stdio_2                    0x000187df   Thumb Code     0  libinit2.o(.ARM.Collect$$libinit$$00000023)
    __fpl_dnaninf                            0x000187f7   Thumb Code   156  dnaninf.o(x$fpl$dnaninf)
    __fpl_dretinf                            0x00018893   Thumb Code    12  dretinf.o(x$fpl$dretinf)
    _printf_fp_dec                           0x0001889f   Thumb Code     4  printf1.o(x$fpl$printf1)
    __I$use$fp                               0x000188a2   Number         0  usenofp.o(x$fpl$usenofp)
    __lib_sel_fp_printf                      0x000188a3   Thumb Code     2  _printf_fp_dec.o(.text)
    _printf_fp_dec_real                      0x00018a4f   Thumb Code   620  _printf_fp_dec.o(.text)
    _printf_lcs_common                       0x00018cbb   Thumb Code    20  _printf_wchar.o(.text)
    _printf_wchar                            0x00018ccf   Thumb Code    16  _printf_wchar.o(.text)
    _printf_wstring                          0x00018cdf   Thumb Code     8  _printf_wchar.o(.text)
    ferror                                   0x00018ce7   Thumb Code     8  ferror.o(.text)
    fputc                                    0x00018cef   Thumb Code    26  fputc.o(i.fputc)
    _wcrtomb                                 0x00018d09   Thumb Code    64  _wcrtomb.o(.text)
    _sys_open                                0x00018d49   Thumb Code    20  sys_io.o(.text)
    _sys_close                               0x00018d5d   Thumb Code    12  sys_io.o(.text)
    _sys_write                               0x00018d69   Thumb Code    16  sys_io.o(.text)
    _sys_read                                0x00018d79   Thumb Code    14  sys_io.o(.text)
    _sys_istty                               0x00018d87   Thumb Code    12  sys_io.o(.text)
    _sys_seek                                0x00018d93   Thumb Code    14  sys_io.o(.text)
    _sys_ensure                              0x00018da1   Thumb Code     2  sys_io.o(.text)
    _sys_flen                                0x00018da3   Thumb Code    12  sys_io.o(.text)
    free                                     0x00018daf   Thumb Code    78  h1_free.o(.text)
    _btod_d2e                                0x00018dfd   Thumb Code    62  btod.o(CL$$btod_d2e)
    _d2e_norm_op1                            0x00018e3b   Thumb Code    96  btod.o(CL$$btod_d2e_norm_op1)
    _d2e_denorm_low                          0x00018e9b   Thumb Code    70  btod.o(CL$$btod_d2e_denorm_low)
    _btod_emul                               0x00018ee1   Thumb Code    40  btod.o(CL$$btod_emul)
    _btod_ediv                               0x00018f09   Thumb Code    40  btod.o(CL$$btod_ediv)
    _e2e                                     0x00018f31   Thumb Code   198  btod.o(CL$$btod_e2e)
    __btod_mult_common                       0x00018ff7   Thumb Code   580  btod.o(CL$$btod_mult_common)
    __btod_div_common                        0x0001923b   Thumb Code   696  btod.o(CL$$btod_div_common)
    __flsbuf                                 0x00019573   Thumb Code   478  flsbuf.o(.text)
    __flsbuf_byte                            0x00019573   Thumb Code     0  flsbuf.o(.text)
    __flsbuf_wide                            0x00019573   Thumb Code     0  flsbuf.o(.text)
    setvbuf                                  0x00019751   Thumb Code    70  setvbuf.o(.text)
    _fclose_internal                         0x00019797   Thumb Code    76  fclose.o(.text)
    fclose                                   0x00019797   Thumb Code     0  fclose.o(.text)
    __rt_SIGRTRED                            0x000197e3   Thumb Code    14  defsig_rtred_outer.o(.text)
    __ARM_fpclassify                         0x000197f1   Thumb Code    40  fpclassify.o(i.__ARM_fpclassify)
    __rt_lib_shutdown_stdio_2                0x000197f1   Thumb Code     0  libshutdown2.o(.ARM.Collect$$libshutdown$$00000003)
    __I$use$semihosting                      0x00019819   Thumb Code     0  use_no_semi.o(.text)
    __use_no_semihosting_swi                 0x00019819   Thumb Code     2  use_no_semi.o(.text)
    __semihosting_library_function           0x0001981b   Thumb Code     0  indicate_semi.o(.text)
    __use_no_heap                            0x0001981b   Thumb Code     2  hguard.o(.text)
    __heap$guard                             0x0001981d   Thumb Code     2  hguard.o(.text)
    _terminate_user_alloc                    0x0001981f   Thumb Code     2  init_alloc.o(.text)
    _init_user_alloc                         0x00019821   Thumb Code     2  init_alloc.o(.text)
    __Heap_Full                              0x00019823   Thumb Code    32  init_alloc.o(.text)
    __Heap_Broken                            0x00019843   Thumb Code     6  init_alloc.o(.text)
    _init_alloc                              0x00019849   Thumb Code    94  init_alloc.o(.text)
    malloc                                   0x000198a7   Thumb Code    94  h1_alloc.o(.text)
    __sig_exit                               0x00019905   Thumb Code    10  defsig_exit.o(.text)
    __rt_SIGRTMEM                            0x0001990f   Thumb Code    14  defsig_rtmem_outer.o(.text)
    __Heap_Initialize                        0x0001991d   Thumb Code    10  h1_init.o(.text)
    __Heap_DescSize                          0x00019927   Thumb Code     4  h1_init.o(.text)
    __Heap_ProvideMemory                     0x0001992b   Thumb Code    50  h1_extend.o(.text)
    _ftell_internal                          0x0001995d   Thumb Code    70  ftell.o(.text)
    ftell                                    0x0001995d   Thumb Code     0  ftell.o(.text)
    __default_signal_display                 0x000199a3   Thumb Code    50  defsig_general.o(.text)
    _ttywrch                                 0x000199d5   Thumb Code    14  sys_wrch.o(.text)
    print                                    0x000199e5   Thumb Code     2  tz_main.o(.text)
    tz_app_cmd_handler                       0x000199e7   Thumb Code   226  tz_main.o(.text)
    tz_app_init                              0x00019ac9   Thumb Code     2  tz_main.o(.text)
    tz_app_shutdown                          0x00019acb   Thumb Code     2  tz_main.o(.text)
    ss_get_random_string                     0x00019b11   Thumb Code    24  tz_key_wrapping.o(.text)
    ss_unwrap_key                            0x00019b29   Thumb Code   214  tz_key_wrapping.o(.text)
    ss_wrap_key                              0x00019bff   Thumb Code   324  tz_key_wrapping.o(.text)
    tz_process_command                       0x0001e8d1   Thumb Code   410  tz_ta_sstorage_service.o(.text)
    encdec_key                               0x0001ea6d   Thumb Code   570  ss_key_encryption.o(.text)
    ss_discrete_Hannover_transform           0x0001ef7d   Thumb Code   272  ss_discrete_hannover_transform.o(.text)
    printKeyInfo                             0x0001f1e9   Thumb Code     2  ss_key_management_skmm_key_generation.o(.text)
    ss_gen_app_key_v2                        0x0001f88d   Thumb Code    28  ss_key_management_skmm_key_generation.o(.text)
    ss_decrypt_app_key_v2                    0x0001f8a9   Thumb Code    14  ss_key_management_skmm_key_generation.o(.text)
    ss_re_encryptDKEK                        0x0001f8b7   Thumb Code    76  ss_key_management_skmm_key_generation.o(.text)
    ss_checkWrappedDkek                      0x0001f903   Thumb Code   102  ss_key_management_skmm_key_generation.o(.text)
    ss_gen_key_for_locked_state              0x0001f96b   Thumb Code   326  ss_key_management_lsm.o(.text)
    ss_gen_asym_key_pair_and_write_to_NWd    0x0001fab1   Thumb Code  1094  ss_key_management_lsm.o(.text)
    keys_re_encrypt                          0x0001fef7   Thumb Code  2092  ss_key_management_lsm.o(.text)
    dkek_re_encrypt                          0x00020723   Thumb Code   758  ss_key_management_lsm.o(.text)
    ss_parse_data_header                     0x00020a19   Thumb Code    78  ss_key_management_helper_functions.o(.text)
    ss_re_write_data_header                  0x00020a67   Thumb Code    50  ss_key_management_helper_functions.o(.text)
    ss_add_cert_to_key                       0x00020a99   Thumb Code   196  ss_key_management_helper_functions.o(.text)
    ss_init                                  0x00020b61   Thumb Code   206  tz_ta_sstorage_secdrv_interface.o(.text)
    ss_validate                              0x00020c2f   Thumb Code   376  tz_ta_sstorage_secdrv_interface.o(.text)
    ss_read_data                             0x00020da7   Thumb Code   140  tz_ta_sstorage_secdrv_interface.o(.text)
    ss_write_data                            0x00020e33   Thumb Code   220  tz_ta_sstorage_secdrv_interface.o(.text)
    ss_put_config                            0x00020f0f   Thumb Code   130  tz_ta_sstorage_secdrv_interface.o(.text)
    ss_prng_gen_with_drv                     0x00020f91   Thumb Code   152  tz_ta_sstorage_secdrv_interface.o(.text)
    tz_ta_crypto_encrypt_with_drv            0x00021029   Thumb Code   172  tz_ta_sstorage_secdrv_interface.o(.text)
    tz_ta_crypto_decrypt_with_drv            0x000210d5   Thumb Code   156  tz_ta_sstorage_secdrv_interface.o(.text)
    ss_load_key_hash                         0x0002125d   Thumb Code    80  tz_ta_sstorage_secdrv_interface.o(.text)
    zremhnraoceE14919264819455402200         0x000212ad   Thumb Code    38  tz_ta_sstorage_secdrv_interface.o(.text)
    btaluIroafcesis14919264819455402200      0x000212d3   Thumb Code   836  tz_ta_sstorage_secdrv_interface.o(.text)
    ss_genKeyForNwdDrv                       0x00021617   Thumb Code   166  tz_ta_sstorage_secdrv_interface.o(.text)
    ss_self_test                             0x000216bd   Thumb Code     4  tz_ta_sstorage_secdrv_interface.o(.text)
    ss_set_crlog_key                         0x000216c1   Thumb Code     4  tz_ta_sstorage_secdrv_interface.o(.text)
    ss_tz_map_4k                             0x0002179f   Thumb Code   612  ss_memory_internal.o(.text)
    ss_tz_unmap_4k                           0x00021a03   Thumb Code   284  ss_memory_internal.o(.text)
    ss_tz_map_region                         0x00021b1f   Thumb Code   504  ss_memory_internal.o(.text)
    ss_tz_unmap_region                       0x00021d17   Thumb Code   342  ss_memory_internal.o(.text)
    initSKEIN                                0x00021ea5   Thumb Code    22  ss_SKEIN.o(.text)
    updateSKEIN                              0x00021ebd   Thumb Code    12  ss_SKEIN.o(.text)
    getResultAndResetSKEIN                   0x00021ec9   Thumb Code    22  ss_SKEIN.o(.text)
    find_vma                                 0x0002487f   Thumb Code  4352  task.o(.text)
    parse_tasks_all                          0x00026d4b   Thumb Code  1572  task.o(.text)
    read_to_buf                              0x0002736f   Thumb Code  1008  task.o(.text)
    write_to_buf                             0x0002775f   Thumb Code   704  task.o(.text)
    crypto_to_buf                            0x00028287   Thumb Code  1008  task.o(.text)
    prepare_stack_ctx                        0x00028be5   Thumb Code   120  ss_parse_ustack.o(.text)
    interpret_stack_value                    0x00028c5d   Thumb Code   596  ss_parse_ustack.o(.text)
    check_stack_value                        0x00028eb1   Thumb Code   484  ss_parse_ustack.o(.text)
    close_ctx                                0x00029095   Thumb Code   172  ss_parse_ustack.o(.text)
    set_config                               0x00029e3b   Thumb Code  3152  ss_config.o(.text)
    parse_gaf                                0x0002aa8d   Thumb Code   216  gaf.o(.text)
    check_gaf_checksum                       0x0002aba1   Thumb Code   244  gaf.o(.text)
    get_value                                0x0002ad67   Thumb Code    10  dmp.o(.text)
    get_value_and_check                      0x0002ad71   Thumb Code   282  dmp.o(.text)
    get_by_cycle                             0x0002ae8b   Thumb Code    22  dmp.o(.text)
    get_by_cycle_and_check                   0x0002aea1   Thumb Code   282  dmp.o(.text)
    get_uint                                 0x0002afbb   Thumb Code     4  dmp.o(.text)
    get_nwd_addr_t                           0x0002afbf   Thumb Code   116  dmp.o(.text)
    get_uint_and_check                       0x0002b033   Thumb Code   110  dmp.o(.text)
    get_nwd_addr_t_and_check                 0x0002b0a1   Thumb Code   362  dmp.o(.text)
    cache_set_table_address                  0x0002b249   Thumb Code    40  cache_table.o(.text)
    cache_table_clean                        0x0002b271   Thumb Code    22  cache_table.o(.text)
    cache_add_entry                          0x0002b3d1   Thumb Code    52  cache_table.o(.text)
    cache_get_area_info                      0x0002b405   Thumb Code    26  cache_table.o(.text)
    cache_entry_lock                         0x0002b41f   Thumb Code    94  cache_table.o(.text)
    cache_entry_locked                       0x0002b47d   Thumb Code     4  cache_table.o(.text)
    cache_get_task                           0x0002b481   Thumb Code   126  cache_table.o(.text)
    cache_check_task                         0x0002b4ff   Thumb Code    52  cache_table.o(.text)
    cache_get_ustack                         0x0002b533   Thumb Code     8  cache_table.o(.text)
    check_odex                               0x0002b581   Thumb Code   276  odex.o(.text)
    is_odex                                  0x0002b695   Thumb Code   314  odex.o(.text)
    test_prng                                0x0002bc73   Thumb Code   144  tz_prng.o(.text)
    getprng_data                             0x0002bd03   Thumb Code   226  tz_prng.o(.text)
    self_test_all                            0x0002c54d   Thumb Code    30  selftest.o(.text)
    print_crypto_log_d                       0x0002c82d   Thumb Code    34  cryptolog.o(.text)
    prepare_and_print_test                   0x0002c84f   Thumb Code    82  cryptolog.o(.text)
    save_and_send_key                        0x0002c8a1   Thumb Code   248  cryptolog.o(.text)
    get_flag                                 0x0002cabd   Thumb Code   130  ss_mapped_regions_registry.o(.text)
    print_check_map_table                    0x0002cb3f   Thumb Code   540  ss_mapped_regions_registry.o(.text)
    init_maped_list                          0x0002cd5b   Thumb Code    18  ss_mapped_regions_registry.o(.text)
    ss_4k_can_be_mapped                      0x0002cd6d   Thumb Code   396  ss_mapped_regions_registry.o(.text)
    ss_register_4k_mapped                    0x0002cef9   Thumb Code   476  ss_mapped_regions_registry.o(.text)
    ss_unregister_4k_mapped                  0x0002d0d5   Thumb Code   220  ss_mapped_regions_registry.o(.text)
    phys_check_map_table                     0x0002d1b1   Thumb Code    88  ss_mapped_regions_registry.o(.text)
    asn1_get_next                            0x0002d209   Thumb Code   204  asn1.o(.text)
    asn1_parse_oid                           0x0002d2d5   Thumb Code   124  asn1.o(.text)
    asn1_get_oid                             0x0002d351   Thumb Code    74  asn1.o(.text)
    asn1_oid_to_str                          0x0002d39b   Thumb Code    86  asn1.o(.text)
    asn1_bit_string_to_long                  0x0002d40f   Thumb Code    72  asn1.o(.text)
    ss_import_ecc_key                        0x0002d465   Thumb Code   296  ECDH.o(.text)
    ss_export_ecc_key                        0x0002d58d   Thumb Code    66  ECDH.o(.text)
    ss_crypto_gen_ecc_key                    0x0002d5cf   Thumb Code   168  ECDH.o(.text)
    ss_crypto_gen_ecc_secret                 0x0002d677   Thumb Code   158  ECDH.o(.text)
    ss_crypto_clear_ecc_context              0x0002d715   Thumb Code   104  ECDH.o(.text)
    ss_aes_gcm_init                          0x0002d7c1   Thumb Code    74  AES.o(.text)
    ss_aes_gcm_add_aad                       0x0002d80b   Thumb Code    22  AES.o(.text)
    ss_aes_gcm_update                        0x0002d821   Thumb Code    70  AES.o(.text)
    ss_aes_gcm_finish                        0x0002d867   Thumb Code    64  AES.o(.text)
    ss_import_asym_key                       0x0002d95d   Thumb Code  1316  ss_ta_asymmetric_crypto_api.o(.text)
    ss_export_asym_key                       0x0002df39   Thumb Code   296  ss_ta_asymmetric_crypto_api.o(.text)
    ss_crypto_gen_asym_key                   0x0002e061   Thumb Code   972  ss_ta_asymmetric_crypto_api.o(.text)
    ss_crypto_decrypt_sym_key                0x0002e42d   Thumb Code   184  ss_ta_asymmetric_crypto_api.o(.text)
    ss_crypto_encrypt_sym_key                0x0002e4e5   Thumb Code   198  ss_ta_asymmetric_crypto_api.o(.text)
    ss_crypto_clear_asym_context             0x0002e5ab   Thumb Code   518  ss_ta_asymmetric_crypto_api.o(.text)
    LONG_it                                  0x0002e7b1   Thumb Code    12  x_long.o(.text)
    DSA_SIG_it                               0x0002e999   Thumb Code    12  dsa_asn1.o(.text)
    d2i_DSA_SIG                              0x0002e9a5   Thumb Code    20  dsa_asn1.o(.text)
    i2d_DSA_SIG                              0x0002e9b9   Thumb Code    20  dsa_asn1.o(.text)
    FIPS_dsa_sig_new                         0x0002e9cd   Thumb Code    14  dsa_asn1.o(.text)
    FIPS_dsa_sig_free                        0x0002e9db   Thumb Code    20  dsa_asn1.o(.text)
    DSAPrivateKey_it                         0x0002ea1b   Thumb Code    12  dsa_asn1.o(.text)
    d2i_DSAPrivateKey                        0x0002ea27   Thumb Code    20  dsa_asn1.o(.text)
    i2d_DSAPrivateKey                        0x0002ea3b   Thumb Code    20  dsa_asn1.o(.text)
    DSAparams_it                             0x0002ea4f   Thumb Code    12  dsa_asn1.o(.text)
    d2i_DSAparams                            0x0002ea5b   Thumb Code    20  dsa_asn1.o(.text)
    i2d_DSAparams                            0x0002ea6f   Thumb Code    20  dsa_asn1.o(.text)
    DSAPublicKey_it                          0x0002ea83   Thumb Code    12  dsa_asn1.o(.text)
    d2i_DSAPublicKey                         0x0002ea8f   Thumb Code    20  dsa_asn1.o(.text)
    i2d_DSAPublicKey                         0x0002eaa3   Thumb Code    20  dsa_asn1.o(.text)
    DSAparams_dup                            0x0002eab7   Thumb Code    16  dsa_asn1.o(.text)
    DSA_sign                                 0x0002eac7   Thumb Code    68  dsa_asn1.o(.text)
    DSA_verify                               0x0002eb0b   Thumb Code   120  dsa_asn1.o(.text)
    fips_bn_mod_exp2_mont                    0x0002ecb5   Thumb Code   978  dsa_ossl.o(.text)
    BN_generate_dsa_nonce                    0x0002f087   Thumb Code   292  dsa_ossl.o(.text)
    FIPS_dsa_openssl                         0x0002f1ab   Thumb Code    12  dsa_ossl.o(.text)
    convert_kern_virt_to_phys                0x0002f76d   Thumb Code    94  vmem_64.o(.text)
    convert_kern_phys_to_virt                0x0002f7cb   Thumb Code    78  vmem_64.o(.text)
    virtual_is_kernel                        0x0002f819   Thumb Code    14  vmem_64.o(.text)
    phys_is_valid                            0x0002f827   Thumb Code    38  vmem_64.o(.text)
    convert_virt_to_phys                     0x0002f84d   Thumb Code   804  vmem_64.o(.text)
    get_l1_rec                               0x0002fb71   Thumb Code   424  vmem_64.o(.text)
    get_val_from_virt                        0x0002fd19   Thumb Code   312  vmem_64.o(.text)
    converter_init                           0x0002fe51   Thumb Code     4  vmem_64.o(.text)
    converter_fini                           0x0002fe55   Thumb Code    34  vmem_64.o(.text)
    converter_get_phys                       0x0002fe77   Thumb Code    22  vmem_64.o(.text)
    process_kern_stack                       0x0002ff0d   Thumb Code   660  kernel_stack_64.o(.text)
    qsee_err_fatal                           0x00030225   Thumb Code    34  tzapp_lib_main.o(.text)
    platform_err_fatal                       0x00030247   Thumb Code     2  tzapp_lib_main.o(.text)
    platform_get_random                      0x00030249   Thumb Code     4  tzapp_lib_main.o(.text)
    __stack_chk_fail                         0x0003024d   Thumb Code     2  tzapp_lib_main.o(.text)
    _sys_command_string                      0x0003024f   Thumb Code     4  tzapp_lib_main.o(.text)
    get_stack_base                           0x00030253   Thumb Code    12  tzapp_lib_main.o(.text)
    get_stack_size                           0x0003025f   Thumb Code    24  tzapp_lib_main.o(.text)
    get_app_maxObjs                          0x00030277   Thumb Code     4  tzapp_lib_main.o(.text)
    get_app_acceptBufSize                    0x0003027b   Thumb Code     6  tzapp_lib_main.o(.text)
    get_app_acceptBuf                        0x00030281   Thumb Code    12  tzapp_lib_main.o(.text)
    get_app_name                             0x0003028d   Thumb Code    12  tzapp_lib_main.o(.text)
    qsee_cmnlib_free                         0x00030299   Thumb Code    54  tzapp_lib_main.o(.text)
    qsee_cmnlib_malloc                       0x000302cf   Thumb Code    60  tzapp_lib_main.o(.text)
    qsee_free                                0x0003030b   Thumb Code    52  tzapp_lib_main.o(.text)
    qsee_malloc                              0x0003033f   Thumb Code    54  tzapp_lib_main.o(.text)
    tzlib_app_entry                          0x00030375   Thumb Code   190  tzapp_lib_main.o(.text)
    get_app_entry                            0x00030533   Thumb Code    12  tzapp_lib_main.o(.text)
    server_exit                              0x0003053f   Thumb Code    32  tzapp_lib_main.o(.text)
    serverLoop                               0x0003055f   Thumb Code    84  tzapp_lib_main.o(.text)
    get_app_serverloop_entry                 0x000305b3   Thumb Code     6  tzapp_lib_main.o(.text)
    get_app_req_resp                         0x000305b9   Thumb Code    12  tzapp_lib_main.o(.text)
    qsee_read_register                       0x000305c5   Thumb Code    32  tzapp_lib_main.o(.text)
    qsee_request_service                     0x000305e5   Thumb Code    80  tzapp_lib_main.o(.text)
    qsee_wait                                0x00030635   Thumb Code    34  tzapp_lib_main.o(.text)
    qsee_register_shared_buffer              0x00030657   Thumb Code    34  tzapp_lib_main.o(.text)
    qsee_deregister_shared_buffer            0x00030679   Thumb Code    32  tzapp_lib_main.o(.text)
    qsee_prepare_shared_buf_for_nosecure_read 0x00030699   Thumb Code    34  tzapp_lib_main.o(.text)
    qsee_prepare_shared_buf_for_secure_read  0x000306bb   Thumb Code    34  tzapp_lib_main.o(.text)
    qsee_set_global_flag                     0x000306dd   Thumb Code    32  tzapp_lib_main.o(.text)
    qsee_get_global_flag                     0x000306fd   Thumb Code    34  tzapp_lib_main.o(.text)
    qsee_oem_process_cmd                     0x0003071f   Thumb Code    36  tzapp_lib_main.o(.text)
    qsee_encapsulate_inter_app_message       0x00030743   Thumb Code    36  tzapp_lib_main.o(.text)
    qsee_decapsulate_inter_app_message       0x00030767   Thumb Code    36  tzapp_lib_main.o(.text)
    qsee_enforce_hdmi_hdcp_encryption        0x0003078b   Thumb Code    32  tzapp_lib_main.o(.text)
    qsee_get_secure_state                    0x000307ab   Thumb Code    32  tzapp_lib_main.o(.text)
    cryptolib_init                           0x00030881   Thumb Code    30  cryptolib_init.o(.text)
    FIPS_openssl_cleanse                     0x000308f5   Thumb Code   104  mem_clr.o(.text)
    ASN1_tag2bit                             0x0003096d   Thumb Code    24  tasn_dec.o(.text)
    asn1_ex_c2i                              0x00030e59   Thumb Code   510  tasn_dec.o(.text)
    ASN1_item_ex_d2i                         0x000314bf   Thumb Code  1470  tasn_dec.o(.text)
    ASN1_item_d2i                            0x00031a7d   Thumb Code    58  tasn_dec.o(.text)
    ASN1_template_d2i                        0x00031ab7   Thumb Code    28  tasn_dec.o(.text)
    ASN1_INTEGER_it                          0x00031aed   Thumb Code    12  tasn_typ.o(.text)
    d2i_ASN1_INTEGER                         0x00031af9   Thumb Code    20  tasn_typ.o(.text)
    i2d_ASN1_INTEGER                         0x00031b0d   Thumb Code    20  tasn_typ.o(.text)
    ASN1_INTEGER_new                         0x00031b21   Thumb Code    14  tasn_typ.o(.text)
    ASN1_INTEGER_free                        0x00031b2f   Thumb Code    20  tasn_typ.o(.text)
    ASN1_ENUMERATED_it                       0x00031b43   Thumb Code    12  tasn_typ.o(.text)
    d2i_ASN1_ENUMERATED                      0x00031b4f   Thumb Code    20  tasn_typ.o(.text)
    i2d_ASN1_ENUMERATED                      0x00031b63   Thumb Code    20  tasn_typ.o(.text)
    ASN1_ENUMERATED_new                      0x00031b77   Thumb Code    14  tasn_typ.o(.text)
    ASN1_ENUMERATED_free                     0x00031b85   Thumb Code    20  tasn_typ.o(.text)
    ASN1_BIT_STRING_it                       0x00031b99   Thumb Code    12  tasn_typ.o(.text)
    d2i_ASN1_BIT_STRING                      0x00031ba5   Thumb Code    20  tasn_typ.o(.text)
    i2d_ASN1_BIT_STRING                      0x00031bb9   Thumb Code    20  tasn_typ.o(.text)
    ASN1_BIT_STRING_new                      0x00031bcd   Thumb Code    14  tasn_typ.o(.text)
    ASN1_BIT_STRING_free                     0x00031bdb   Thumb Code    20  tasn_typ.o(.text)
    ASN1_OCTET_STRING_it                     0x00031bef   Thumb Code    12  tasn_typ.o(.text)
    d2i_ASN1_OCTET_STRING                    0x00031bfb   Thumb Code    20  tasn_typ.o(.text)
    i2d_ASN1_OCTET_STRING                    0x00031c0f   Thumb Code    20  tasn_typ.o(.text)
    ASN1_OCTET_STRING_new                    0x00031c23   Thumb Code    14  tasn_typ.o(.text)
    ASN1_OCTET_STRING_free                   0x00031c31   Thumb Code    20  tasn_typ.o(.text)
    ASN1_NULL_it                             0x00031c45   Thumb Code    12  tasn_typ.o(.text)
    d2i_ASN1_NULL                            0x00031c51   Thumb Code    20  tasn_typ.o(.text)
    i2d_ASN1_NULL                            0x00031c65   Thumb Code    20  tasn_typ.o(.text)
    ASN1_NULL_new                            0x00031c79   Thumb Code    14  tasn_typ.o(.text)
    ASN1_NULL_free                           0x00031c87   Thumb Code    20  tasn_typ.o(.text)
    ASN1_OBJECT_it                           0x00031c9b   Thumb Code    12  tasn_typ.o(.text)
    ASN1_UTF8STRING_it                       0x00031ca7   Thumb Code    12  tasn_typ.o(.text)
    d2i_ASN1_UTF8STRING                      0x00031cb3   Thumb Code    20  tasn_typ.o(.text)
    i2d_ASN1_UTF8STRING                      0x00031cc7   Thumb Code    20  tasn_typ.o(.text)
    ASN1_UTF8STRING_new                      0x00031cdb   Thumb Code    14  tasn_typ.o(.text)
    ASN1_UTF8STRING_free                     0x00031ce9   Thumb Code    20  tasn_typ.o(.text)
    ASN1_PRINTABLESTRING_it                  0x00031cfd   Thumb Code    12  tasn_typ.o(.text)
    d2i_ASN1_PRINTABLESTRING                 0x00031d09   Thumb Code    20  tasn_typ.o(.text)
    i2d_ASN1_PRINTABLESTRING                 0x00031d1d   Thumb Code    20  tasn_typ.o(.text)
    ASN1_PRINTABLESTRING_new                 0x00031d31   Thumb Code    14  tasn_typ.o(.text)
    ASN1_PRINTABLESTRING_free                0x00031d3f   Thumb Code    20  tasn_typ.o(.text)
    ASN1_T61STRING_it                        0x00031d53   Thumb Code    12  tasn_typ.o(.text)
    d2i_ASN1_T61STRING                       0x00031d5f   Thumb Code    20  tasn_typ.o(.text)
    i2d_ASN1_T61STRING                       0x00031d73   Thumb Code    20  tasn_typ.o(.text)
    ASN1_T61STRING_new                       0x00031d87   Thumb Code    14  tasn_typ.o(.text)
    ASN1_T61STRING_free                      0x00031d95   Thumb Code    20  tasn_typ.o(.text)
    ASN1_IA5STRING_it                        0x00031da9   Thumb Code    12  tasn_typ.o(.text)
    d2i_ASN1_IA5STRING                       0x00031db5   Thumb Code    20  tasn_typ.o(.text)
    i2d_ASN1_IA5STRING                       0x00031dc9   Thumb Code    20  tasn_typ.o(.text)
    ASN1_IA5STRING_new                       0x00031ddd   Thumb Code    14  tasn_typ.o(.text)
    ASN1_IA5STRING_free                      0x00031deb   Thumb Code    20  tasn_typ.o(.text)
    ASN1_GENERALSTRING_it                    0x00031dff   Thumb Code    12  tasn_typ.o(.text)
    d2i_ASN1_GENERALSTRING                   0x00031e0b   Thumb Code    20  tasn_typ.o(.text)
    i2d_ASN1_GENERALSTRING                   0x00031e1f   Thumb Code    20  tasn_typ.o(.text)
    ASN1_GENERALSTRING_new                   0x00031e33   Thumb Code    14  tasn_typ.o(.text)
    ASN1_GENERALSTRING_free                  0x00031e41   Thumb Code    20  tasn_typ.o(.text)
    ASN1_UTCTIME_it                          0x00031e55   Thumb Code    12  tasn_typ.o(.text)
    d2i_ASN1_UTCTIME                         0x00031e61   Thumb Code    20  tasn_typ.o(.text)
    i2d_ASN1_UTCTIME                         0x00031e75   Thumb Code    20  tasn_typ.o(.text)
    ASN1_UTCTIME_new                         0x00031e89   Thumb Code    14  tasn_typ.o(.text)
    ASN1_UTCTIME_free                        0x00031e97   Thumb Code    20  tasn_typ.o(.text)
    ASN1_GENERALIZEDTIME_it                  0x00031eab   Thumb Code    12  tasn_typ.o(.text)
    d2i_ASN1_GENERALIZEDTIME                 0x00031eb7   Thumb Code    20  tasn_typ.o(.text)
    i2d_ASN1_GENERALIZEDTIME                 0x00031ecb   Thumb Code    20  tasn_typ.o(.text)
    ASN1_GENERALIZEDTIME_new                 0x00031edf   Thumb Code    14  tasn_typ.o(.text)
    ASN1_GENERALIZEDTIME_free                0x00031eed   Thumb Code    20  tasn_typ.o(.text)
    ASN1_VISIBLESTRING_it                    0x00031f01   Thumb Code    12  tasn_typ.o(.text)
    d2i_ASN1_VISIBLESTRING                   0x00031f0d   Thumb Code    20  tasn_typ.o(.text)
    i2d_ASN1_VISIBLESTRING                   0x00031f21   Thumb Code    20  tasn_typ.o(.text)
    ASN1_VISIBLESTRING_new                   0x00031f35   Thumb Code    14  tasn_typ.o(.text)
    ASN1_VISIBLESTRING_free                  0x00031f43   Thumb Code    20  tasn_typ.o(.text)
    ASN1_UNIVERSALSTRING_it                  0x00031f57   Thumb Code    12  tasn_typ.o(.text)
    d2i_ASN1_UNIVERSALSTRING                 0x00031f63   Thumb Code    20  tasn_typ.o(.text)
    i2d_ASN1_UNIVERSALSTRING                 0x00031f77   Thumb Code    20  tasn_typ.o(.text)
    ASN1_UNIVERSALSTRING_new                 0x00031f8b   Thumb Code    14  tasn_typ.o(.text)
    ASN1_UNIVERSALSTRING_free                0x00031f99   Thumb Code    20  tasn_typ.o(.text)
    ASN1_BMPSTRING_it                        0x00031fad   Thumb Code    12  tasn_typ.o(.text)
    d2i_ASN1_BMPSTRING                       0x00031fb9   Thumb Code    20  tasn_typ.o(.text)
    i2d_ASN1_BMPSTRING                       0x00031fcd   Thumb Code    20  tasn_typ.o(.text)
    ASN1_BMPSTRING_new                       0x00031fe1   Thumb Code    14  tasn_typ.o(.text)
    ASN1_BMPSTRING_free                      0x00031fef   Thumb Code    20  tasn_typ.o(.text)
    ASN1_ANY_it                              0x00032003   Thumb Code    12  tasn_typ.o(.text)
    ASN1_SEQUENCE_it                         0x0003200f   Thumb Code    12  tasn_typ.o(.text)
    d2i_ASN1_TYPE                            0x0003201b   Thumb Code    20  tasn_typ.o(.text)
    i2d_ASN1_TYPE                            0x0003202f   Thumb Code    20  tasn_typ.o(.text)
    ASN1_TYPE_new                            0x00032043   Thumb Code    14  tasn_typ.o(.text)
    ASN1_TYPE_free                           0x00032051   Thumb Code    20  tasn_typ.o(.text)
    ASN1_PRINTABLE_it                        0x00032065   Thumb Code    12  tasn_typ.o(.text)
    d2i_ASN1_PRINTABLE                       0x00032071   Thumb Code    20  tasn_typ.o(.text)
    i2d_ASN1_PRINTABLE                       0x00032085   Thumb Code    20  tasn_typ.o(.text)
    ASN1_PRINTABLE_new                       0x00032099   Thumb Code    14  tasn_typ.o(.text)
    ASN1_PRINTABLE_free                      0x000320a7   Thumb Code    20  tasn_typ.o(.text)
    DISPLAYTEXT_it                           0x000320bb   Thumb Code    12  tasn_typ.o(.text)
    d2i_DISPLAYTEXT                          0x000320c7   Thumb Code    20  tasn_typ.o(.text)
    i2d_DISPLAYTEXT                          0x000320db   Thumb Code    20  tasn_typ.o(.text)
    DISPLAYTEXT_new                          0x000320ef   Thumb Code    14  tasn_typ.o(.text)
    DISPLAYTEXT_free                         0x000320fd   Thumb Code    20  tasn_typ.o(.text)
    DIRECTORYSTRING_it                       0x00032111   Thumb Code    12  tasn_typ.o(.text)
    d2i_DIRECTORYSTRING                      0x0003211d   Thumb Code    20  tasn_typ.o(.text)
    i2d_DIRECTORYSTRING                      0x00032131   Thumb Code    20  tasn_typ.o(.text)
    DIRECTORYSTRING_new                      0x00032145   Thumb Code    14  tasn_typ.o(.text)
    DIRECTORYSTRING_free                     0x00032153   Thumb Code    20  tasn_typ.o(.text)
    ASN1_BOOLEAN_it                          0x00032167   Thumb Code    12  tasn_typ.o(.text)
    ASN1_TBOOLEAN_it                         0x00032173   Thumb Code    12  tasn_typ.o(.text)
    ASN1_FBOOLEAN_it                         0x0003217f   Thumb Code    12  tasn_typ.o(.text)
    ASN1_OCTET_STRING_NDEF_it                0x0003218b   Thumb Code    12  tasn_typ.o(.text)
    ASN1_SEQUENCE_ANY_it                     0x00032197   Thumb Code    12  tasn_typ.o(.text)
    ASN1_SET_ANY_it                          0x000321a3   Thumb Code    12  tasn_typ.o(.text)
    d2i_ASN1_SEQUENCE_ANY                    0x000321af   Thumb Code    20  tasn_typ.o(.text)
    i2d_ASN1_SEQUENCE_ANY                    0x000321c3   Thumb Code    20  tasn_typ.o(.text)
    d2i_ASN1_SET_ANY                         0x000321d7   Thumb Code    20  tasn_typ.o(.text)
    i2d_ASN1_SET_ANY                         0x000321eb   Thumb Code    20  tasn_typ.o(.text)
    BIGNUM_it                                0x000324cd   Thumb Code    12  x_bignum.o(.text)
    CBIGNUM_it                               0x000324d9   Thumb Code    12  x_bignum.o(.text)
    ASN1_check_infinite_end                  0x00032613   Thumb Code     2  asn1_lib.o(.text)
    ASN1_const_check_infinite_end            0x00032615   Thumb Code     2  asn1_lib.o(.text)
    ASN1_get_object                          0x00032699   Thumb Code   224  asn1_lib.o(.text)
    ASN1_put_object                          0x000327c3   Thumb Code   152  asn1_lib.o(.text)
    ASN1_put_eoc                             0x0003285b   Thumb Code    18  asn1_lib.o(.text)
    ASN1_object_size                         0x0003286d   Thumb Code    38  asn1_lib.o(.text)
    asn1_Finish                              0x000328d7   Thumb Code     2  asn1_lib.o(.text)
    asn1_const_Finish                        0x000328d9   Thumb Code     2  asn1_lib.o(.text)
    asn1_GetSequence                         0x000328db   Thumb Code   108  asn1_lib.o(.text)
    ASN1_STRING_set                          0x00032947   Thumb Code   152  asn1_lib.o(.text)
    ASN1_STRING_copy                         0x000329df   Thumb Code    40  asn1_lib.o(.text)
    ASN1_STRING_free                         0x00032a07   Thumb Code    36  asn1_lib.o(.text)
    ASN1_STRING_type_new                     0x00032a2b   Thumb Code    56  asn1_lib.o(.text)
    ASN1_STRING_new                          0x00032a63   Thumb Code     4  asn1_lib.o(.text)
    ASN1_STRING_dup                          0x00032a67   Thumb Code    46  asn1_lib.o(.text)
    ASN1_STRING_set0                         0x00032a95   Thumb Code    22  asn1_lib.o(.text)
    ASN1_STRING_cmp                          0x00032aab   Thumb Code    36  asn1_lib.o(.text)
    asn1_add_error                           0x00032acf   Thumb Code    80  asn1_lib.o(.text)
    ASN1_STRING_length                       0x00032b1f   Thumb Code     4  asn1_lib.o(.text)
    ASN1_STRING_length_set                   0x00032b23   Thumb Code     4  asn1_lib.o(.text)
    ASN1_STRING_type                         0x00032b27   Thumb Code     4  asn1_lib.o(.text)
    ASN1_STRING_data                         0x00032b2b   Thumb Code     4  asn1_lib.o(.text)
    CRYPTO_set_mem_functions                 0x00032b7b   Thumb Code    90  mem.o(.text)
    CRYPTO_set_mem_ex_functions              0x00032bd5   Thumb Code    64  mem.o(.text)
    CRYPTO_set_locked_mem_functions          0x00032c15   Thumb Code    46  mem.o(.text)
    CRYPTO_set_locked_mem_ex_functions       0x00032c43   Thumb Code    38  mem.o(.text)
    CRYPTO_set_mem_debug_functions           0x00032c69   Thumb Code    58  mem.o(.text)
    CRYPTO_get_mem_functions                 0x00032ca3   Thumb Code    90  mem.o(.text)
    CRYPTO_get_mem_ex_functions              0x00032cfd   Thumb Code    78  mem.o(.text)
    CRYPTO_get_locked_mem_functions          0x00032d4b   Thumb Code    46  mem.o(.text)
    CRYPTO_get_locked_mem_ex_functions       0x00032d79   Thumb Code    42  mem.o(.text)
    CRYPTO_get_mem_debug_functions           0x00032da3   Thumb Code    56  mem.o(.text)
    CRYPTO_malloc_locked                     0x00032ddb   Thumb Code   126  mem.o(.text)
    CRYPTO_free_locked                       0x00032e59   Thumb Code    48  mem.o(.text)
    CRYPTO_malloc                            0x00032e89   Thumb Code   126  mem.o(.text)
    CRYPTO_strdup                            0x00032f07   Thumb Code    38  mem.o(.text)
    CRYPTO_realloc                           0x00032f2d   Thumb Code   128  mem.o(.text)
    CRYPTO_realloc_clean                     0x00032fad   Thumb Code   192  mem.o(.text)
    CRYPTO_free                              0x0003306d   Thumb Code    48  mem.o(.text)
    CRYPTO_remalloc                          0x0003309d   Thumb Code    32  mem.o(.text)
    CRYPTO_set_mem_debug_options             0x000330bd   Thumb Code    20  mem.o(.text)
    CRYPTO_get_mem_debug_options             0x000330d1   Thumb Code    20  mem.o(.text)
    RSA_sign                                 0x00033161   Thumb Code   440  rsa_sign.o(.text)
    int_rsa_verify                           0x00033319   Thumb Code   666  rsa_sign.o(.text)
    RSA_verify                               0x000335b3   Thumb Code    62  rsa_sign.o(.text)
    FIPS_mode                                0x000335fd   Thumb Code    14  o_fips.o(.text)
    FIPS_mode_set                            0x0003360b   Thumb Code    44  o_fips.o(.text)
    fips_bn_exp                              0x0003365d   Thumb Code   230  bn_exp.o(.text)
    fips_bn_mod_exp_recp                     0x00033743   Thumb Code   536  bn_exp.o(.text)
    fips_bn_mod_exp_mont_consttime           0x000339f9   Thumb Code   772  bn_exp.o(.text)
    fips_bn_mod_exp_mont                     0x00033cfd   Thumb Code   640  bn_exp.o(.text)
    fips_bn_mod_exp_mont_word                0x00033f7d   Thumb Code   628  bn_exp.o(.text)
    fips_bn_mod_exp                          0x000341f1   Thumb Code    88  bn_exp.o(.text)
    fips_bn_mod_exp_simple                   0x00034249   Thumb Code   470  bn_exp.o(.text)
    fips_bn_nnmod                            0x00034421   Thumb Code    74  bn_mod.o(.text)
    fips_bn_mod_add                          0x0003446b   Thumb Code    34  bn_mod.o(.text)
    fips_bn_mod_add_quick                    0x0003448d   Thumb Code    48  bn_mod.o(.text)
    fips_bn_mod_sub                          0x000344bd   Thumb Code    34  bn_mod.o(.text)
    fips_bn_mod_sub_quick                    0x000344df   Thumb Code    40  bn_mod.o(.text)
    fips_bn_mod_mul                          0x00034507   Thumb Code    94  bn_mod.o(.text)
    fips_bn_mod_sqr                          0x00034565   Thumb Code    38  bn_mod.o(.text)
    fips_bn_mod_lshift1                      0x0003458b   Thumb Code    34  bn_mod.o(.text)
    fips_bn_mod_lshift1_quick                0x000345ad   Thumb Code    48  bn_mod.o(.text)
    fips_bn_mod_lshift_quick                 0x000345dd   Thumb Code   148  bn_mod.o(.text)
    fips_bn_mod_lshift                       0x00034671   Thumb Code    90  bn_mod.o(.text)
    FIPS_bn_rand                             0x0003481d   Thumb Code    18  bn_rand.o(.text)
    FIPS_bn_pseudo_rand                      0x0003482f   Thumb Code    18  bn_rand.o(.text)
    fips_bn_bntest_rand                      0x00034841   Thumb Code    18  bn_rand.o(.text)
    FIPS_bn_rand_range                       0x00034975   Thumb Code     8  bn_rand.o(.text)
    FIPS_bn_pseudo_rand_range                0x0003497d   Thumb Code     8  bn_rand.o(.text)
    fips_bn_set_params                       0x00034989   Thumb Code   110  bn_lib.o(.text)
    fips_bn_get_params                       0x000349f7   Thumb Code    44  bn_lib.o(.text)
    fips_bn_value_one                        0x00034a23   Thumb Code    12  bn_lib.o(.text)
    FIPS_bn_num_bits_word                    0x00034a2f   Thumb Code    60  bn_lib.o(.text)
    FIPS_bn_num_bits                         0x00034a6b   Thumb Code    34  bn_lib.o(.text)
    FIPS_bn_clear_free                       0x00034a8d   Thumb Code   116  bn_lib.o(.text)
    FIPS_bn_free                             0x00034b01   Thumb Code    54  bn_lib.o(.text)
    fips_bn_init                             0x00034b37   Thumb Code    14  bn_lib.o(.text)
    FIPS_bn_new                              0x00034b45   Thumb Code    58  bn_lib.o(.text)
    fips_bn_expand2                          0x00034c31   Thumb Code    44  bn_lib.o(.text)
    fips_bn_copy                             0x00034c5d   Thumb Code   138  bn_lib.o(.text)
    fips_bn_dup                              0x00034ce7   Thumb Code    46  bn_lib.o(.text)
    fips_bn_dup_expand                       0x00034d15   Thumb Code    72  bn_lib.o(.text)
    fips_bn_swap                             0x00034d5d   Thumb Code    74  bn_lib.o(.text)
    FIPS_bn_clear                            0x00034da7   Thumb Code    24  bn_lib.o(.text)
    FIPS_bn_get_word                         0x00034dbf   Thumb Code    26  bn_lib.o(.text)
    fips_bn_set_word                         0x00034dd9   Thumb Code    52  bn_lib.o(.text)
    FIPS_bn_bin2bn                           0x00034e0d   Thumb Code   188  bn_lib.o(.text)
    FIPS_bn_bn2bin                           0x00034ec9   Thumb Code    58  bn_lib.o(.text)
    fips_bn_ucmp                             0x00034f03   Thumb Code    60  bn_lib.o(.text)
    fips_bn_cmp                              0x00034f3f   Thumb Code   146  bn_lib.o(.text)
    FIPS_bn_set_bit                          0x00034fd1   Thumb Code   108  bn_lib.o(.text)
    fips_bn_clear_bit                        0x0003503d   Thumb Code   100  bn_lib.o(.text)
    FIPS_bn_is_bit_set                       0x000350a1   Thumb Code    46  bn_lib.o(.text)
    fips_bn_mask_bits                        0x000350cf   Thumb Code   114  bn_lib.o(.text)
    fips_bn_set_negative                     0x00035141   Thumb Code    18  bn_lib.o(.text)
    fips_bn_cmp_words                        0x00035153   Thumb Code    72  bn_lib.o(.text)
    fips_bn_cmp_part_words                   0x0003519b   Thumb Code    72  bn_lib.o(.text)
    FIPS_ec_key_new                          0x000351fd   Thumb Code    66  ec_key.o(.text)
    FIPS_ec_key_free                         0x0003523f   Thumb Code    98  ec_key.o(.text)
    FIPS_ec_key_new_by_curve_name            0x000352a1   Thumb Code    40  ec_key.o(.text)
    FIPS_ec_key_copy                         0x000352c9   Thumb Code   228  ec_key.o(.text)
    FIPS_ec_key_dup                          0x000353ad   Thumb Code    40  ec_key.o(.text)
    FIPS_ec_key_up_ref                       0x000353d5   Thumb Code    18  ec_key.o(.text)
    fips_check_ec_prng                       0x00035465   Thumb Code   136  ec_key.o(.text)
    FIPS_ec_key_generate_key                 0x000354ed   Thumb Code   262  ec_key.o(.text)
    FIPS_ec_key_check_key                    0x000355f3   Thumb Code   378  ec_key.o(.text)
    FIPS_ec_key_set_public_key               0x0003576d   Thumb Code    34  ec_key.o(.text)
    FIPS_ec_key_set_public_key_affine_coordinates 0x0003578f   Thumb Code   266  ec_key.o(.text)
    FIPS_ec_key_get0_group                   0x00035899   Thumb Code     4  ec_key.o(.text)
    FIPS_ec_key_set_group                    0x0003589d   Thumb Code    32  ec_key.o(.text)
    FIPS_ec_key_get0_private_key             0x000358bd   Thumb Code     4  ec_key.o(.text)
    FIPS_ec_key_set_private_key              0x000358c1   Thumb Code    32  ec_key.o(.text)
    FIPS_ec_key_get0_public_key              0x000358e1   Thumb Code     4  ec_key.o(.text)
    FIPS_ec_key_get_enc_flags                0x000358e5   Thumb Code     4  ec_key.o(.text)
    FIPS_ec_key_set_enc_flags                0x000358e9   Thumb Code     4  ec_key.o(.text)
    FIPS_ec_key_get_conv_form                0x000358ed   Thumb Code     4  ec_key.o(.text)
    FIPS_ec_key_set_conv_form                0x000358f1   Thumb Code    14  ec_key.o(.text)
    FIPS_ec_key_get_key_method_data          0x000358ff   Thumb Code     6  ec_key.o(.text)
    FIPS_ec_key_insert_key_method_data       0x00035905   Thumb Code    50  ec_key.o(.text)
    FIPS_ec_key_set_asn1_flag                0x00035937   Thumb Code    12  ec_key.o(.text)
    FIPS_ec_key_precompute_mult              0x00035943   Thumb Code    12  ec_key.o(.text)
    FIPS_ec_key_get_flags                    0x0003594f   Thumb Code     4  ec_key.o(.text)
    FIPS_ec_key_set_flags                    0x00035953   Thumb Code     8  ec_key.o(.text)
    FIPS_ec_key_clear_flags                  0x0003595b   Thumb Code    10  ec_key.o(.text)
    FIPS_ec_group_new                        0x00035965   Thumb Code   146  ec_lib.o(.text)
    FIPS_ec_point_free                       0x000359f7   Thumb Code    30  ec_lib.o(.text)
    fips_ec_ex_data_free_all_data            0x00035a15   Thumb Code    38  ec_lib.o(.text)
    fips_ec_group_free                       0x00035a3b   Thumb Code    70  ec_lib.o(.text)
    FIPS_ec_point_clear_free                 0x00035a81   Thumb Code    78  ec_lib.o(.text)
    fips_ec_ex_data_clear_free_all_data      0x00035acf   Thumb Code    38  ec_lib.o(.text)
    FIPS_ec_group_clear_free                 0x00035af5   Thumb Code   146  ec_lib.o(.text)
    fips_ec_point_copy                       0x00035b87   Thumb Code    74  ec_lib.o(.text)
    FIPS_ec_point_new                        0x00035bd1   Thumb Code   118  ec_lib.o(.text)
    fips_ec_ex_data_set_data                 0x00035c47   Thumb Code   150  ec_lib.o(.text)
    fips_ec_group_copy                       0x00035cdd   Thumb Code   306  ec_lib.o(.text)
    fips_ec_group_dup                        0x00035e0f   Thumb Code    54  ec_lib.o(.text)
    FIPS_ec_group_method_of                  0x00035e45   Thumb Code     4  ec_lib.o(.text)
    FIPS_ec_method_get_field_type            0x00035e49   Thumb Code     4  ec_lib.o(.text)
    FIPS_ec_group_set_generator              0x00035e4d   Thumb Code   158  ec_lib.o(.text)
    FIPS_ec_group_get0_generator             0x00035eeb   Thumb Code     4  ec_lib.o(.text)
    FIPS_ec_group_get_order                  0x00035eef   Thumb Code    32  ec_lib.o(.text)
    FIPS_ec_group_get_cofactor               0x00035f0f   Thumb Code    32  ec_lib.o(.text)
    FIPS_ec_group_set_curve_name             0x00035f2f   Thumb Code     4  ec_lib.o(.text)
    FIPS_ec_group_get_curve_name             0x00035f33   Thumb Code     4  ec_lib.o(.text)
    FIPS_ec_group_set_asn1_flag              0x00035f37   Thumb Code     4  ec_lib.o(.text)
    FIPS_ec_group_get_asn1_flag              0x00035f3b   Thumb Code     4  ec_lib.o(.text)
    FIPS_ec_group_set_point_conversion_form  0x00035f3f   Thumb Code     6  ec_lib.o(.text)
    fips_ec_group_get_point_conversion_form  0x00035f45   Thumb Code     6  ec_lib.o(.text)
    fips_ec_group_set_seed                   0x00035f4b   Thumb Code    72  ec_lib.o(.text)
    FIPS_ec_group_get0_seed                  0x00035f93   Thumb Code     4  ec_lib.o(.text)
    fips_ec_group_get_seed_len               0x00035f97   Thumb Code     4  ec_lib.o(.text)
    FIPS_ec_group_set_curve_gfp              0x00035f9b   Thumb Code    44  ec_lib.o(.text)
    FIPS_ec_group_get_curve_gfp              0x00035fc7   Thumb Code    44  ec_lib.o(.text)
    FIPS_ec_group_get_degree                 0x00035ff3   Thumb Code    36  ec_lib.o(.text)
    fips_ec_group_check_discriminant         0x00036017   Thumb Code    36  ec_lib.o(.text)
    fips_ec_point_cmp                        0x0003603b   Thumb Code    74  ec_lib.o(.text)
    fips_ec_group_cmp                        0x00036085   Thumb Code   430  ec_lib.o(.text)
    fips_ec_ex_data_get_data                 0x00036233   Thumb Code    40  ec_lib.o(.text)
    fips_ec_ex_data_free_data                0x0003625b   Thumb Code    76  ec_lib.o(.text)
    fips_ec_ex_data_clear_free_data          0x000362a7   Thumb Code    76  ec_lib.o(.text)
    fips_ec_point_dup                        0x000362f3   Thumb Code    48  ec_lib.o(.text)
    FIPS_ec_point_method_of                  0x00036323   Thumb Code     4  ec_lib.o(.text)
    FIPS_ec_point_set_to_infinity            0x00036327   Thumb Code    66  ec_lib.o(.text)
    fips_ec_point_set_jprojective_coordinates_gfp 0x00036369   Thumb Code    86  ec_lib.o(.text)
    FIPS_ec_point_get_jprojective_coordinates_gfp 0x000363bf   Thumb Code    86  ec_lib.o(.text)
    fips_ec_point_set_affine_coordinates_gfp 0x00036415   Thumb Code    64  ec_lib.o(.text)
    FIPS_ec_point_get_affine_coordinates_gfp 0x00036455   Thumb Code    64  ec_lib.o(.text)
    fips_ec_point_add                        0x00036495   Thumb Code    76  ec_lib.o(.text)
    fips_ec_point_dbl                        0x000364e1   Thumb Code    74  ec_lib.o(.text)
    fips_ec_point_invert                     0x0003652b   Thumb Code    68  ec_lib.o(.text)
    FIPS_ec_point_is_at_infinity             0x0003656f   Thumb Code    66  ec_lib.o(.text)
    FIPS_ec_point_is_on_curve                0x000365b1   Thumb Code    66  ec_lib.o(.text)
    FIPS_ec_point_make_affine                0x000365f3   Thumb Code    66  ec_lib.o(.text)
    FIPS_ec_points_make_affine               0x00036635   Thumb Code    80  ec_lib.o(.text)
    fips_ec_points_mul                       0x00036685   Thumb Code    48  ec_lib.o(.text)
    FIPS_ec_point_mul                        0x000366b5   Thumb Code    48  ec_lib.o(.text)
    FIPS_ec_group_precompute_mult            0x000366e5   Thumb Code    20  ec_lib.o(.text)
    fips_ec_group_have_precompute_mult       0x000366f9   Thumb Code    22  ec_lib.o(.text)
    FIPS_evp_sha1                            0x00036727   Thumb Code    12  m_sha1.o(.text)
    FIPS_evp_sha224                          0x0003674f   Thumb Code    12  m_sha1.o(.text)
    FIPS_evp_sha256                          0x0003675b   Thumb Code    12  m_sha1.o(.text)
    FIPS_evp_sha384                          0x00036783   Thumb Code    12  m_sha1.o(.text)
    FIPS_evp_sha512                          0x0003678f   Thumb Code    12  m_sha1.o(.text)
    FIPS_hmac_init_ex                        0x00036875   Thumb Code   316  hmac.o(.text)
    FIPS_hmac_ctx_init                       0x000369b1   Thumb Code    30  hmac.o(.text)
    FIPS_hmac_init                           0x000369cf   Thumb Code    42  hmac.o(.text)
    FIPS_hmac_update                         0x000369f9   Thumb Code     6  hmac.o(.text)
    FIPS_hmac_final                          0x000369ff   Thumb Code    94  hmac.o(.text)
    FIPS_hmac_ctx_copy                       0x00036a5d   Thumb Code    80  hmac.o(.text)
    FIPS_hmac_ctx_cleanup                    0x00036aad   Thumb Code    38  hmac.o(.text)
    FIPS_hmac                                0x00036ad3   Thumb Code    98  hmac.o(.text)
    FIPS_hmac_ctx_set_flags                  0x00036b35   Thumb Code    20  hmac.o(.text)
    fips_crypto_gcm128_init                  0x00036f63   Thumb Code   212  gcm128.o(.text)
    fips_crypto_gcm128_setiv                 0x00037037   Thumb Code   354  gcm128.o(.text)
    fips_crypto_gcm128_aad                   0x00037199   Thumb Code   218  gcm128.o(.text)
    fips_crypto_gcm128_encrypt               0x00037273   Thumb Code   682  gcm128.o(.text)
    fips_crypto_gcm128_decrypt               0x0003751d   Thumb Code   668  gcm128.o(.text)
    fips_crypto_gcm128_encrypt_ctr32         0x000377b9   Thumb Code   458  gcm128.o(.text)
    fips_crypto_gcm128_decrypt_ctr32         0x00037983   Thumb Code   458  gcm128.o(.text)
    fips_crypto_gcm128_finish                0x00037b4d   Thumb Code   340  gcm128.o(.text)
    fips_crypto_gcm128_tag                   0x00037ca1   Thumb Code    42  gcm128.o(.text)
    fips_crypto_gcm128_new                   0x00037ccb   Thumb Code    46  gcm128.o(.text)
    fips_crypto_gcm128_release               0x00037cf9   Thumb Code    46  gcm128.o(.text)
    fips_check_rsa_prng                      0x00037d29   Thumb Code   138  rsa_gen.o(.text)
    fips_check_rsa                           0x00037db3   Thumb Code   352  rsa_gen.o(.text)
    FIPS_rsa_generate_key_ex                 0x000382df   Thumb Code    18  rsa_gen.o(.text)
    fips_sha384_init                         0x000382f1   Thumb Code   186  sha512.o(.text)
    fips_sha512_init                         0x000383ab   Thumb Code   186  sha512.o(.text)
    fips_sha512_final                        0x00038465   Thumb Code   422  sha512.o(.text)
    fips_sha384_final                        0x0003860b   Thumb Code     2  sha512.o(.text)
    fips_sha512_update                       0x0003860d   Thumb Code   182  sha512.o(.text)
    fips_sha384_update                       0x000386c3   Thumb Code     2  sha512.o(.text)
    fips_sha512_transform                    0x000386c5   Thumb Code     6  sha512.o(.text)
    fips_sha384                              0x000386cb   Thumb Code    82  sha512.o(.text)
    fips_sha512                              0x0003871d   Thumb Code    84  sha512.o(.text)
    fips_sha224_init                         0x00038775   Thumb Code   100  sha256.o(.text)
    fips_sha256_init                         0x000387d9   Thumb Code   100  sha256.o(.text)
    fips_sha256_final                        0x0003883d   Thumb Code   302  sha256.o(.text)
    fips_sha256_update                       0x0003896b   Thumb Code   174  sha256.o(.text)
    fips_sha224                              0x00038a19   Thumb Code    82  sha256.o(.text)
    fips_sha256                              0x00038a6b   Thumb Code    82  sha256.o(.text)
    fips_sha224_update                       0x00038abd   Thumb Code     2  sha256.o(.text)
    fips_sha224_final                        0x00038abf   Thumb Code     2  sha256.o(.text)
    fips_sha256_transform                    0x00038ac1   Thumb Code     6  sha256.o(.text)
    FIPS_md_ctx_init                         0x00038acd   Thumb Code    16  fips_md.o(.text)
    FIPS_md_ctx_create                       0x00038add   Thumb Code    34  fips_md.o(.text)
    FIPS_digestinit                          0x00038b47   Thumb Code   226  fips_md.o(.text)
    FIPS_digestupdate                        0x00038c29   Thumb Code    50  fips_md.o(.text)
    FIPS_digestfinal                         0x00038c5b   Thumb Code   112  fips_md.o(.text)
    FIPS_md_ctx_cleanup                      0x00038ccb   Thumb Code   100  fips_md.o(.text)
    FIPS_digest                              0x00038d2f   Thumb Code    80  fips_md.o(.text)
    FIPS_md_ctx_destroy                      0x00038d7f   Thumb Code    20  fips_md.o(.text)
    FIPS_md_ctx_copy                         0x00038d93   Thumb Code   166  fips_md.o(.text)
    FIPS_get_digestbynid                     0x00038e39   Thumb Code    58  fips_md.o(.text)
    fips_aes_encrypt                         0x000394d8   ARM Code      96  aes-armv4-cc.o(.text)
    fips_aes_set_encrypt_key                 0x00039710   ARM Code     680  aes-armv4-cc.o(.text)
    fips_aes_set_decrypt_key                 0x000399b8   ARM Code     268  aes-armv4-cc.o(.text)
    fips_aes_decrypt                         0x00039fc4   ARM Code      96  aes-armv4-cc.o(.text)
    lh_strhash                               0x0003a211   Thumb Code    60  lhash.o(.text)
    lh_new                                   0x0003a24d   Thumb Code   154  lhash.o(.text)
    lh_free                                  0x0003a2e7   Thumb Code    62  lhash.o(.text)
    lh_insert                                0x0003a447   Thumb Code   118  lhash.o(.text)
    lh_delete                                0x0003a547   Thumb Code    82  lhash.o(.text)
    lh_retrieve                              0x0003a599   Thumb Code    40  lhash.o(.text)
    lh_doall                                 0x0003a605   Thumb Code    16  lhash.o(.text)
    lh_doall_arg                             0x0003a615   Thumb Code    16  lhash.o(.text)
    lh_num_items                             0x0003a625   Thumb Code    10  lhash.o(.text)
    X509_SIG_it                              0x0003a631   Thumb Code    12  x_sig.o(.text)
    d2i_X509_SIG                             0x0003a63d   Thumb Code    20  x_sig.o(.text)
    i2d_X509_SIG                             0x0003a651   Thumb Code    20  x_sig.o(.text)
    X509_SIG_new                             0x0003a665   Thumb Code    14  x_sig.o(.text)
    X509_SIG_free                            0x0003a673   Thumb Code    20  x_sig.o(.text)
    OBJ_bsearch_ex_                          0x0003a6f7   Thumb Code   140  obj_dat.o(.text)
    OBJ_bsearch_                             0x0003a783   Thumb Code    24  obj_dat.o(.text)
    check_defer                              0x0003a949   Thumb Code    28  obj_dat.o(.text)
    OBJ_cleanup                              0x0003a965   Thumb Code    88  obj_dat.o(.text)
    OBJ_new_nid                              0x0003a9bd   Thumb Code    20  obj_dat.o(.text)
    OBJ_add_object                           0x0003a9d1   Thumb Code   272  obj_dat.o(.text)
    OBJ_nid2obj                              0x0003aae1   Thumb Code   128  obj_dat.o(.text)
    OBJ_nid2sn                               0x0003ab61   Thumb Code   132  obj_dat.o(.text)
    OBJ_nid2ln                               0x0003abe5   Thumb Code   130  obj_dat.o(.text)
    OBJ_obj2nid                              0x0003aca9   Thumb Code   118  obj_dat.o(.text)
    OBJ_ln2nid                               0x0003ad1f   Thumb Code   108  obj_dat.o(.text)
    OBJ_sn2nid                               0x0003ad8b   Thumb Code   108  obj_dat.o(.text)
    BIO_vsnprintf                            0x00046737   Thumb Code    58  b_print.o(.text)
    BIO_snprintf                             0x00046771   Thumb Code    20  b_print.o(.text)
    RAND_SSLeay                              0x00046785   Thumb Code    12  rand_lib.o(.text)
    RAND_set_rand_method                     0x00046791   Thumb Code    16  rand_lib.o(.text)
    RAND_get_rand_method                     0x000467a1   Thumb Code    30  rand_lib.o(.text)
    RAND_set_fips_drbg_type                  0x000468a1   Thumb Code    16  rand_lib.o(.text)
    RAND_init_fips                           0x000468b1   Thumb Code   236  rand_lib.o(.text)
    OPENSSL_init                             0x000469b1   Thumb Code   116  o_init.o(.text)
    runOpenSSLPOST                           0x00046a25   Thumb Code     2  o_init.o(.text)
    fips_ec_wnaf_mul                         0x00046cff   Thumb Code  1830  ec_mult.o(.text)
    fips_ec_wnaf_precompute_mult             0x00047425   Thumb Code   836  ec_mult.o(.text)
    fips_ec_wnaf_have_precompute_mult        0x00047769   Thumb Code    48  ec_mult.o(.text)
    FIPS_ec_group_new_by_curve_name          0x000479df   Thumb Code   194  ec_curve.o(.text)
    FIPS_ec_get_builtin_curves               0x00047aa1   Thumb Code    70  ec_curve.o(.text)
    FIPS_rsa_pkcs1_ssleay                    0x00047f35   Thumb Code    12  rsa_eay.o(.text)
    FIPS_drbg_init                           0x00048ed1   Thumb Code   162  fips_drbg_lib.o(.text)
    FIPS_drbg_new                            0x00048f73   Thumb Code    98  fips_drbg_lib.o(.text)
    FIPS_drbg_free                           0x00048fd5   Thumb Code    90  fips_drbg_lib.o(.text)
    FIPS_drbg_instantiate                    0x000490fd   Thumb Code   282  fips_drbg_lib.o(.text)
    FIPS_drbg_reseed                         0x000492fb   Thumb Code     4  fips_drbg_lib.o(.text)
    FIPS_drbg_generate                       0x00049337   Thumb Code   310  fips_drbg_lib.o(.text)
    FIPS_drbg_uninstantiate                  0x0004946d   Thumb Code    40  fips_drbg_lib.o(.text)
    FIPS_drbg_set_callbacks                  0x00049495   Thumb Code    44  fips_drbg_lib.o(.text)
    FIPS_drbg_set_rand_callbacks             0x000494c1   Thumb Code    44  fips_drbg_lib.o(.text)
    FIPS_drbg_get_app_data                   0x000494ed   Thumb Code     4  fips_drbg_lib.o(.text)
    FIPS_drbg_set_app_data                   0x000494f1   Thumb Code     4  fips_drbg_lib.o(.text)
    FIPS_drbg_get_blocklength                0x000494f5   Thumb Code     4  fips_drbg_lib.o(.text)
    FIPS_drbg_get_strength                   0x000494f9   Thumb Code     4  fips_drbg_lib.o(.text)
    FIPS_drbg_set_check_interval             0x000494fd   Thumb Code     4  fips_drbg_lib.o(.text)
    FIPS_drbg_set_reseed_interval            0x00049501   Thumb Code     4  fips_drbg_lib.o(.text)
    FIPS_drbg_stick                          0x00049505   Thumb Code    14  fips_drbg_lib.o(.text)
    fips_drbg_cprng_test                     0x00049513   Thumb Code   126  fips_drbg_lib.o(.text)
    FIPS_x931_stick                          0x00049591   Thumb Code    14  fips_rand.o(.text)
    FIPS_x931_test_mode                      0x00049755   Thumb Code    12  fips_rand.o(.text)
    FIPS_x931_set_dt                         0x00049761   Thumb Code    52  fips_rand.o(.text)
    FIPS_get_timevec                         0x00049795   Thumb Code     2  fips_rand.o(.text)
    FIPS_x931_set_key                        0x00049901   Thumb Code    16  fips_rand.o(.text)
    FIPS_x931_seed                           0x00049911   Thumb Code    16  fips_rand.o(.text)
    FIPS_x931_bytes                          0x00049921   Thumb Code    16  fips_rand.o(.text)
    FIPS_x931_status                         0x00049931   Thumb Code    14  fips_rand.o(.text)
    FIPS_x931_reset                          0x0004993f   Thumb Code    12  fips_rand.o(.text)
    FIPS_x931_method                         0x0004995f   Thumb Code    12  fips_rand.o(.text)
    FIPS_module_mode                         0x00049a51   Thumb Code    28  fips.o(.text)
    FIPS_module_mode_set                     0x00049baf   Thumb Code   136  fips.o(.text)
    FIPS_premain_init                        0x00049c37   Thumb Code    38  fips.o(.text)
    FIPS_selftest_failed                     0x00049c5d   Thumb Code    28  fips.o(.text)
    FIPS_selftest_check                      0x00049c79   Thumb Code    36  fips.o(.text)
    fips_set_selftest_fail                   0x00049c9d   Thumb Code    16  fips.o(.text)
    FIPS_calc_integrity                      0x00049cad   Thumb Code     4  fips.o(.text)
    FIPS_integrity_check                     0x00049cb1   Thumb Code     4  fips.o(.text)
    FIPS_check_incore_fingerprint            0x00049cb5   Thumb Code     2  fips.o(.text)
    FIPS_module_version                      0x00049cb7   Thumb Code    10  fips.o(.text)
    FIPS_module_version_text                 0x00049cc1   Thumb Code     4  fips.o(.text)
    FIPS_post_set_callback                   0x00049d99   Thumb Code    14  fips_post.o(.text)
    fips_post_begin                          0x00049da7   Thumb Code    52  fips_post.o(.text)
    fips_post_end                            0x00049ddb   Thumb Code    62  fips_post.o(.text)
    fips_post_started                        0x00049e19   Thumb Code    42  fips_post.o(.text)
    fips_post_success                        0x00049e43   Thumb Code    42  fips_post.o(.text)
    fips_post_failed                         0x00049e6d   Thumb Code    46  fips_post.o(.text)
    fips_post_corrupt                        0x00049e9b   Thumb Code    42  fips_post.o(.text)
    fips_post_status                         0x00049ec5   Thumb Code    24  fips_post.o(.text)
    FIPS_selftest                            0x00049edd   Thumb Code   128  fips_post.o(.text)
    fips_pkey_signature_test                 0x00049f5d   Thumb Code   476  fips_post.o(.text)
    fips_cipher_test                         0x0004a139   Thumb Code   270  fips_post.o(.text)
    fips_bn_mul_mont                         0x0004a274   ARM Code     472  armv4-mont-cc.o(.text)
    rem_4bit_get                             0x0004a46c   ARM Code      16  ghash-armv4-cc.o(.text)
    fips_gcm_ghash_4bit                      0x0004a47c   ARM Code     324  ghash-armv4-cc.o(.text)
    fips_gcm_gmult_4bit                      0x0004a5c0   ARM Code     256  ghash-armv4-cc.o(.text)
    fips_sha256_block_data_order             0x0004a7c0   ARM Code    3920  sha256-armv4-cc.o(.text)
    X509_ALGOR_it                            0x0004b711   Thumb Code    12  x_algor.o(.text)
    X509_ALGORS_it                           0x0004b71d   Thumb Code    12  x_algor.o(.text)
    d2i_X509_ALGOR                           0x0004b729   Thumb Code    20  x_algor.o(.text)
    i2d_X509_ALGOR                           0x0004b73d   Thumb Code    20  x_algor.o(.text)
    X509_ALGOR_new                           0x0004b751   Thumb Code    14  x_algor.o(.text)
    X509_ALGOR_free                          0x0004b75f   Thumb Code    20  x_algor.o(.text)
    d2i_X509_ALGORS                          0x0004b773   Thumb Code    20  x_algor.o(.text)
    i2d_X509_ALGORS                          0x0004b787   Thumb Code    20  x_algor.o(.text)
    X509_ALGOR_dup                           0x0004b79b   Thumb Code    16  x_algor.o(.text)
    X509_ALGOR_set0                          0x0004b7ab   Thumb Code   100  x_algor.o(.text)
    X509_ALGOR_get0                          0x0004b80f   Thumb Code    42  x_algor.o(.text)
    X509_ALGOR_set_md                        0x0004b839   Thumb Code    44  x_algor.o(.text)
    BN_mod_sqrt                              0x0004b8f1   Thumb Code  1378  bn_sqrt.o(.text)
    ECDSA_SIG_it                             0x0004be55   Thumb Code    12  ecs_asn1.o(.text)
    d2i_ECDSA_SIG                            0x0004be61   Thumb Code    20  ecs_asn1.o(.text)
    i2d_ECDSA_SIG                            0x0004be75   Thumb Code    20  ecs_asn1.o(.text)
    FIPS_ecdsa_sig_new                       0x0004be89   Thumb Code    14  ecs_asn1.o(.text)
    FIPS_ecdsa_sig_free                      0x0004be97   Thumb Code    20  ecs_asn1.o(.text)
    OpenSSL_add_all_digests                  0x0004beed   Thumb Code    54  c_alld.o(.text)
    RAND_poll                                0x0004bf51   Thumb Code    90  rand_poll_target.o(.text)
    FIPS_ecdh_openssl                        0x0004bfc5   Thumb Code    12  ech_ossl.o(.text)
    fips_ecdh_check                          0x0004c1fd   Thumb Code    12  ech_ossl.o(.text)
    FIPS_cipher_ctx_init                     0x0004c241   Thumb Code     6  fips_enc.o(.text)
    FIPS_cipher_ctx_new                      0x0004c247   Thumb Code    34  fips_enc.o(.text)
    FIPS_cipher_ctx_ctrl                     0x0004c2e1   Thumb Code   134  fips_enc.o(.text)
    FIPS_cipher_ctx_cleanup                  0x0004c367   Thumb Code    82  fips_enc.o(.text)
    FIPS_cipherinit                          0x0004c3b9   Thumb Code   472  fips_enc.o(.text)
    FIPS_cipher_ctx_free                     0x0004c591   Thumb Code   412  fips_enc.o(.text)
    FIPS_cipher_ctx_copy                     0x0004c72d   Thumb Code   198  fips_enc.o(.text)
    FIPS_cipher_ctx_set_key_length           0x0004c7f3   Thumb Code    32  fips_enc.o(.text)
    FIPS_cipher                              0x0004c813   Thumb Code    60  fips_enc.o(.text)
    FIPS_get_cipherbynid                     0x0004c84f   Thumb Code   354  fips_enc.o(.text)
    FIPS_ecdsa_sign_ctx                      0x0004c9f9   Thumb Code    90  fips_ecdsa_sign.o(.text)
    FIPS_ecdsa_verify_ctx                    0x0004ca53   Thumb Code    94  fips_ecdsa_sign.o(.text)
    FIPS_ecdsa_verify                        0x0004cab1   Thumb Code    98  fips_ecdsa_sign.o(.text)
    FIPS_ecdsa_sign                          0x0004cb13   Thumb Code    94  fips_ecdsa_sign.o(.text)
    fips_drbg_ec_init                        0x0004d071   Thumb Code   486  fips_drbg_ec.o(.text)
    fips_drbg_hmac_init                      0x0004d65b   Thumb Code   220  fips_drbg_hmac.o(.text)
    fips_drbg_hash_init                      0x0004dc79   Thumb Code   186  fips_drbg_hash.o(.text)
    FIPS_rsa_sign_digest                     0x0004de25   Thumb Code   468  fips_rsa_sign.o(.text)
    FIPS_rsa_sign_ctx                        0x0004dff9   Thumb Code   120  fips_rsa_sign.o(.text)
    FIPS_rsa_verify_digest                   0x0004e071   Thumb Code   496  fips_rsa_sign.o(.text)
    FIPS_rsa_verify_ctx                      0x0004e261   Thumb Code   122  fips_rsa_sign.o(.text)
    FIPS_rsa_sign                            0x0004e2db   Thumb Code   142  fips_rsa_sign.o(.text)
    FIPS_rsa_verify                          0x0004e369   Thumb Code   114  fips_rsa_sign.o(.text)
    FIPS_selftest_rsa                        0x0004e4a3   Thumb Code    84  fips_rsa_selftest.o(.text)
    FIPS_selftest_sha1                       0x0004e509   Thumb Code    88  fips_sha1_selftest.o(.text)
    Inline Thumb to ARM Veneer to fips_sha1_block_data_order 0x0004e56d   Thumb Code     4  sha1-armv4-large-cc.o(.text)
    fips_sha1_block_data_order               0x0004e570   ARM Code    1368  sha1-armv4-large-cc.o(.text)
    FIPS_cmac_ctx_new                        0x0004eb21   Thumb Code    48  cmac.o(.text)
    FIPS_cmac_ctx_cleanup                    0x0004eb51   Thumb Code   152  cmac.o(.text)
    FIPS_cmac_ctx_get0_cipher_ctx            0x0004ebe9   Thumb Code     2  cmac.o(.text)
    FIPS_cmac_ctx_free                       0x0004ebeb   Thumb Code    20  cmac.o(.text)
    FIPS_cmac_ctx_copy                       0x0004ebff   Thumb Code   104  cmac.o(.text)
    FIPS_cmac_init                           0x0004ec67   Thumb Code   324  cmac.o(.text)
    FIPS_cmac_update                         0x0004edab   Thumb Code   170  cmac.o(.text)
    FIPS_cmac_final                          0x0004ee55   Thumb Code   184  cmac.o(.text)
    FIPS_cmac_resume                         0x0004ef0d   Thumb Code    32  cmac.o(.text)
    fips_ec_gfp_mont_method                  0x0004ef5d   Thumb Code    12  ecp_mont.o(.text)
    fips_ec_gfp_mont_group_init              0x0004ef69   Thumb Code    22  ecp_mont.o(.text)
    fips_ec_gfp_mont_group_finish            0x0004ef7f   Thumb Code    44  ecp_mont.o(.text)
    fips_ec_gfp_mont_group_clear_finish      0x0004efab   Thumb Code    44  ecp_mont.o(.text)
    fips_ec_gfp_mont_group_copy              0x0004efd7   Thumb Code   118  ecp_mont.o(.text)
    fips_ec_gfp_mont_group_set_curve         0x0004f04d   Thumb Code   220  ecp_mont.o(.text)
    fips_ec_gfp_mont_field_mul               0x0004f129   Thumb Code    48  ecp_mont.o(.text)
    fips_ec_gfp_mont_field_sqr               0x0004f159   Thumb Code    44  ecp_mont.o(.text)
    fips_ec_gfp_mont_field_encode            0x0004f185   Thumb Code    48  ecp_mont.o(.text)
    fips_ec_gfp_mont_field_decode            0x0004f1b5   Thumb Code    44  ecp_mont.o(.text)
    fips_ec_gfp_mont_field_set_to_one        0x0004f1e1   Thumb Code    46  ecp_mont.o(.text)
    FIPS_ecdsa_openssl                       0x0004f351   Thumb Code    12  ecs_ossl.o(.text)
    fips_ecdsa_check                         0x0004f5a5   Thumb Code    12  ecs_ossl.o(.text)
    FIPS_ecdsa_verify_digest                 0x0004fad5   Thumb Code    38  ecs_ossl.o(.text)
    FIPS_ecdsa_sign_digest                   0x0004fafb   Thumb Code    38  ecs_ossl.o(.text)
    FIPS_evp_aes_128_cbc                     0x0004fe0f   Thumb Code    12  e_aes.o(.text)
    FIPS_evp_aes_128_ecb                     0x0004fe1b   Thumb Code    12  e_aes.o(.text)
    FIPS_evp_aes_128_ofb                     0x0004fe27   Thumb Code    12  e_aes.o(.text)
    FIPS_evp_aes_128_cfb128                  0x0004fe33   Thumb Code    12  e_aes.o(.text)
    FIPS_evp_aes_128_cfb1                    0x0004fe3f   Thumb Code    12  e_aes.o(.text)
    FIPS_evp_aes_128_cfb8                    0x0004fe4b   Thumb Code    12  e_aes.o(.text)
    FIPS_evp_aes_128_ctr                     0x0004fe57   Thumb Code    12  e_aes.o(.text)
    FIPS_evp_aes_192_cbc                     0x0004fe63   Thumb Code    12  e_aes.o(.text)
    FIPS_evp_aes_192_ecb                     0x0004fe6f   Thumb Code    12  e_aes.o(.text)
    FIPS_evp_aes_192_ofb                     0x0004fe7b   Thumb Code    12  e_aes.o(.text)
    FIPS_evp_aes_192_cfb128                  0x0004fe87   Thumb Code    12  e_aes.o(.text)
    FIPS_evp_aes_192_cfb1                    0x0004fe93   Thumb Code    12  e_aes.o(.text)
    FIPS_evp_aes_192_cfb8                    0x0004fe9f   Thumb Code    12  e_aes.o(.text)
    FIPS_evp_aes_192_ctr                     0x0004feab   Thumb Code    12  e_aes.o(.text)
    FIPS_evp_aes_256_cbc                     0x0004feb7   Thumb Code    12  e_aes.o(.text)
    FIPS_evp_aes_256_ecb                     0x0004fec3   Thumb Code    12  e_aes.o(.text)
    FIPS_evp_aes_256_ofb                     0x0004fecf   Thumb Code    12  e_aes.o(.text)
    FIPS_evp_aes_256_cfb128                  0x0004fedb   Thumb Code    12  e_aes.o(.text)
    FIPS_evp_aes_256_cfb1                    0x0004fee7   Thumb Code    12  e_aes.o(.text)
    FIPS_evp_aes_256_cfb8                    0x0004fef3   Thumb Code    12  e_aes.o(.text)
    FIPS_evp_aes_256_ctr                     0x0004feff   Thumb Code    12  e_aes.o(.text)
    aes_gcm_cipher                           0x00050389   Thumb Code   270  e_aes.o(.text)
    FIPS_evp_aes_128_gcm                     0x00050497   Thumb Code    12  e_aes.o(.text)
    FIPS_evp_aes_192_gcm                     0x000504a3   Thumb Code    12  e_aes.o(.text)
    FIPS_evp_aes_256_gcm                     0x000504af   Thumb Code    12  e_aes.o(.text)
    FIPS_evp_aes_128_xts                     0x00050613   Thumb Code    12  e_aes.o(.text)
    FIPS_evp_aes_256_xts                     0x0005061f   Thumb Code    12  e_aes.o(.text)
    FIPS_evp_aes_128_ccm                     0x000508ed   Thumb Code    12  e_aes.o(.text)
    FIPS_evp_aes_192_ccm                     0x000508f9   Thumb Code    12  e_aes.o(.text)
    FIPS_evp_aes_256_ccm                     0x00050905   Thumb Code    12  e_aes.o(.text)
    fips_aes_cbc_encrypt                     0x00050b99   Thumb Code    60  aes_cbc.o(.text)
    fips_ec_gfp_simple_method                0x00050bd5   Thumb Code    12  ecp_smpl.o(.text)
    fips_ec_gfp_simple_group_init            0x00050be1   Thumb Code    38  ecp_smpl.o(.text)
    fips_ec_gfp_simple_group_finish          0x00050c07   Thumb Code    32  ecp_smpl.o(.text)
    fips_ec_gfp_simple_group_clear_finish    0x00050c27   Thumb Code    32  ecp_smpl.o(.text)
    fips_ec_gfp_simple_group_copy            0x00050c47   Thumb Code    72  ecp_smpl.o(.text)
    fips_ec_gfp_simple_group_set_curve       0x00050c8f   Thumb Code   290  ecp_smpl.o(.text)
    fips_ec_gfp_simple_group_get_curve       0x00050db1   Thumb Code   168  ecp_smpl.o(.text)
    fips_ec_gfp_simple_group_get_degree      0x00050e59   Thumb Code     6  ecp_smpl.o(.text)
    fips_ec_gfp_simple_group_check_discriminant 0x00050e5f   Thumb Code   316  ecp_smpl.o(.text)
    fips_ec_gfp_simple_point_init            0x00050f9b   Thumb Code    34  ecp_smpl.o(.text)
    fips_ec_gfp_simple_point_finish          0x00050fbd   Thumb Code    30  ecp_smpl.o(.text)
    fips_ec_gfp_simple_point_clear_finish    0x00050fdb   Thumb Code    32  ecp_smpl.o(.text)
    fips_ec_gfp_simple_point_copy            0x00050ffb   Thumb Code    64  ecp_smpl.o(.text)
    fips_ec_gfp_simple_point_set_to_infinity 0x0005103b   Thumb Code    18  ecp_smpl.o(.text)
    fips_ec_gfp_simple_set_jprojective_coordinates_gfp 0x0005104d   Thumb Code   274  ecp_smpl.o(.text)
    fips_ec_gfp_simple_get_jprojective_coordinates_gfp 0x0005115f   Thumb Code   196  ecp_smpl.o(.text)
    fips_ec_gfp_simple_point_set_affine_coordinates 0x00051223   Thumb Code    70  ecp_smpl.o(.text)
    fips_ec_gfp_simple_point_get_affine_coordinates 0x00051269   Thumb Code   484  ecp_smpl.o(.text)
    fips_ec_gfp_simple_add                   0x0005144d   Thumb Code   870  ecp_smpl.o(.text)
    fips_ec_gfp_simple_dbl                   0x000517b3   Thumb Code   678  ecp_smpl.o(.text)
    fips_ec_gfp_simple_invert                0x00051a59   Thumb Code    42  ecp_smpl.o(.text)
    fips_ec_gfp_simple_is_at_infinity        0x00051a83   Thumb Code    12  ecp_smpl.o(.text)
    fips_ec_gfp_simple_is_on_curve           0x00051a8f   Thumb Code   452  ecp_smpl.o(.text)
    fips_ec_gfp_simple_cmp                   0x00051c53   Thumb Code   434  ecp_smpl.o(.text)
    fips_ec_gfp_simple_make_affine           0x00051e05   Thumb Code   156  ecp_smpl.o(.text)
    fips_ec_gfp_simple_points_make_affine    0x00051ea1   Thumb Code   756  ecp_smpl.o(.text)
    fips_ec_gfp_simple_field_mul             0x00052195   Thumb Code    26  ecp_smpl.o(.text)
    fips_ec_gfp_simple_field_sqr             0x000521af   Thumb Code    14  ecp_smpl.o(.text)
    __rt_ctype_table                         0x000522d5   Thumb Code    16  rt_ctype_table.o(.text)
    __aeabi_uldivmod                         0x000522e4   ARM Code       0  lludiv5.o(.text)
    _ll_udiv                                 0x000522e4   ARM Code     816  lludiv5.o(.text)
    _ll_udiv_donemoving                      0x000522f8   ARM Code       0  lludiv5.o(.text)
    __c89vsnprintf                           0x00052615   Thumb Code    46  c89vsnprintf.o(.text)
    __2printf                                0x00052649   Thumb Code    22  __2printf.o(.text)
    __2sprintf                               0x00052665   Thumb Code    38  __2sprintf.o(.text)
    __2snprintf                              0x00052691   Thumb Code    50  __2snprintf.o(.text)
    _printf_int_dec                          0x000526c9   Thumb Code    98  _printf_dec.o(.text)
    _printf_longlong_hex                     0x0005273d   Thumb Code    92  _printf_hex_int_ll_ptr.o(.text)
    _printf_int_hex                          0x00052799   Thumb Code    28  _printf_hex_int_ll_ptr.o(.text)
    _printf_ll_hex                           0x000527b5   Thumb Code    12  _printf_hex_int_ll_ptr.o(.text)
    _printf_hex_ptr                          0x000527c1   Thumb Code    18  _printf_hex_int_ll_ptr.o(.text)
    __printf                                 0x000527d9   Thumb Code   386  __printf_flags_ss_wp.o(.text)
    memchr                                   0x00052960   ARM Code      48  memchr.o(.text)
    strncmp                                  0x00052990   ARM Code     236  strncmp.o(.text)
    memcpy                                   0x00052a80   ARM Code      12  memcpy.o(.text)
    Inline Thumb to ARM Veneer to __aeabi_memcpy 0x00052a8d   Thumb Code     4  rt_memcpy.o(.text)
    __aeabi_memcpy                           0x00052a90   ARM Code       0  rt_memcpy.o(.text)
    __rt_memcpy                              0x00052a90   ARM Code     212  rt_memcpy.o(.text)
    _memcpy_lastbytes                        0x00052b44   ARM Code       0  rt_memcpy.o(.text)
    __aeabi_memmove                          0x00052b64   ARM Code       0  rt_memmove.o(.text)
    __rt_memmove                             0x00052b64   ARM Code     212  rt_memmove.o(.text)
    __memmove_lastfew                        0x00052c18   ARM Code       0  rt_memmove.o(.text)
    __aeabi_memcpy4                          0x00052c38   ARM Code       0  rt_memcpy_w_qsp.o(.text)
    __aeabi_memcpy8                          0x00052c38   ARM Code       0  rt_memcpy_w_qsp.o(.text)
    __rt_memcpy_w                            0x00052c38   ARM Code     124  rt_memcpy_w_qsp.o(.text)
    _memcpy_lastbytes_aligned                0x00052c9c   ARM Code       0  rt_memcpy_w_qsp.o(.text)
    strncpy                                  0x00052cb4   ARM Code     104  strncpy.o(.text)
    Inline Thumb to ARM Veneer to strcmp     0x00052d21   Thumb Code     4  strcmp.o(.text)
    strcmp                                   0x00052d24   ARM Code     156  strcmp.o(.text)
    __aeabi_idiv                             0x00052dc4   ARM Code       0  aeabi_sdivfast_rs.o(.text)
    __aeabi_idivmod                          0x00052dc4   ARM Code     556  aeabi_sdivfast_rs.o(.text)
    __aeabi_uidiv                            0x00052ff0   ARM Code       0  aeabi_sdivfast_rs.o(.text_udiv)
    __aeabi_uidivmod                         0x00052ff0   ARM Code      48  aeabi_sdivfast_rs.o(.text_udiv)
    __cpp_initialize__aeabi_                 0x00053021   Thumb Code    26  init_aeabi.o(.text)
    __aeabi_dadd                             0x00053045   Thumb Code     0  daddsub_clz.o(x$fpl$dadd)
    _dadd                                    0x00053045   Thumb Code   332  daddsub_clz.o(x$fpl$dadd)
    __aeabi_dsub                             0x00053195   Thumb Code     0  daddsub_clz.o(x$fpl$dsub)
    _dsub                                    0x00053195   Thumb Code   464  daddsub_clz.o(x$fpl$dsub)
    __aeabi_d2iz                             0x00053369   Thumb Code     0  dfix.o(x$fpl$dfix)
    _dfix                                    0x00053369   Thumb Code    94  dfix.o(x$fpl$dfix)
    __aeabi_cdcmple                          0x000533c9   Thumb Code     0  dleqf.o(x$fpl$dleqf)
    _dcmple                                  0x000533c9   Thumb Code   120  dleqf.o(x$fpl$dleqf)
    __fpl_dcmple_InfNaN                      0x0005342b   Thumb Code     0  dleqf.o(x$fpl$dleqf)
    __aeabi_dmul                             0x00053441   Thumb Code     0  dmul.o(x$fpl$dmul)
    _dmul                                    0x00053441   Thumb Code   332  dmul.o(x$fpl$dmul)
    __rt_locale                              0x00053595   Thumb Code    12  rt_locale.o(.text)
    _printf_char_common                      0x000535ab   Thumb Code    32  _printf_char_common.o(.text)
    _printf_char_file                        0x000535d1   Thumb Code    32  _printf_char_file.o(.text)
    _printf_wctomb                           0x000535f5   Thumb Code   178  _printf_wctomb.o(.text)
    _printf_longlong_dec                     0x000536ad   Thumb Code   104  _printf_longlong_dec.o(.text)
    _printf_longlong_oct                     0x00053725   Thumb Code    76  _printf_oct_int_ll.o(.text)
    _printf_int_oct                          0x00053771   Thumb Code    24  _printf_oct_int_ll.o(.text)
    _printf_ll_oct                           0x00053789   Thumb Code    12  _printf_oct_int_ll.o(.text)
    _get_lc_ctype                            0x0005379d   Thumb Code    44  lc_ctype_c.o(locale$$code)
    __aeabi_memmove4                         0x000537c8   ARM Code       0  rt_memmove_w.o(.text)
    __aeabi_memmove8                         0x000537c8   ARM Code       0  rt_memmove_w.o(.text)
    __rt_memmove_w                           0x000537c8   ARM Code     128  rt_memmove_w.o(.text)
    __memmove_aligned                        0x000537f4   ARM Code       0  rt_memmove_w.o(.text)
    __memmove_lastfew_aligned                0x00053830   ARM Code       0  rt_memmove_w.o(.text)
    __rt_udiv10                              0x00053848   ARM Code      44  rtudiv10.o(.text)
    _ll_udiv10                               0x00053874   ARM Code     152  lludiv10.o(.text)
    _initio                                  0x0005390d   Thumb Code   240  initio.o(.text)
    _terminateio                             0x000539fd   Thumb Code    64  initio.o(.text)
    _printf_fp_infnan                        0x00053a69   Thumb Code   112  _printf_fp_infnan.o(.text)
    _btod_etento                             0x00053ae9   Thumb Code   210  bigflt0.o(.text)
    freopen                                  0x00053bc1   Thumb Code   158  fopen.o(.text)
    fopen                                    0x00053c5f   Thumb Code    74  fopen.o(.text)
    _get_lc_numeric                          0x00053cad   Thumb Code    44  lc_numeric_c.o(locale$$code)
    __rt_heap_descriptor                     0x00053cd9   Thumb Code    12  rt_heap_descriptor.o(.text)
    _fseek                                   0x00053ce5   Thumb Code   244  fseek.o(.text)
    fseek                                    0x00053ce5   Thumb Code     0  fseek.o(.text)
    _seterr                                  0x00053ddd   Thumb Code    20  stdio.o(.text)
    _writebuf                                0x00053df1   Thumb Code    84  stdio.o(.text)
    _fflush                                  0x00053e45   Thumb Code    70  stdio.o(.text)
    _deferredlazyseek                        0x00053e8b   Thumb Code    60  stdio.o(.text)
    __rt_SIGRTRED_inner                      0x00053ecd   Thumb Code    14  defsig_rtred_inner.o(.text)
    _sys_exit                                0x00053f01   Thumb Code     8  sys_exit.o(.text)
    __rt_SIGRTMEM_inner                      0x00053f0d   Thumb Code    22  defsig_rtmem_inner.o(.text)
    _maybe_terminate_alloc                   0x00053f0d   Thumb Code     0  maybetermalloc1.o(.emb_text)
    __rt_heap_escrow                         0x00053f5d   Thumb Code    22  heapauxa.o(.text)
    __rt_heap_expand                         0x00053f73   Thumb Code    54  heapauxa.o(.text)
    __aeabi_errno_addr                       0x00053fad   Thumb Code    12  rt_errno_addr.o(.text)
    __errno                                  0x00053fad   Thumb Code     0  rt_errno_addr.o(.text)
    __rt_errno_addr                          0x00053fad   Thumb Code     0  rt_errno_addr.o(.text)
    K512                                     0x000562a0   Data           0  sha512-armv4-cc.o(.text)
    fips_sha512_block_data_order             0x00056520   ARM Code    1208  sha512-armv4-cc.o(.text)
    app_export_init_info_to_qsee             0x00056a00   ARM Code       0  tzapp_syscall.o(tzapp_syscall_asm)
    qsee_printf_syscall                      0x00056a30   ARM Code       0  tzapp_syscall.o(tzapp_syscall_asm)
    qsee_wait_default_signal_syscall         0x00056a48   ARM Code       0  tzapp_syscall.o(tzapp_syscall_asm)
    qsee_generic_syscall                     0x00056a74   ARM Code       0  tzapp_syscall.o(tzapp_syscall_asm)
    mink_generic_syscall                     0x00056a98   ARM Code       0  tzapp_syscall.o(tzapp_syscall_asm)
    Short Thumb to ARM Veneer to fips_aes_encrypt 0x00056ac5   Thumb Code     8  anon$$obj.o(Veneer$$Code)
    Short Thumb to ARM Veneer to fips_aes_set_encrypt_key 0x00056acd   Thumb Code     8  anon$$obj.o(Veneer$$Code)
    Short Thumb to ARM Veneer to set_rw_base 0x00056ad5   Thumb Code     8  anon$$obj.o(Veneer$$Code)
    Short Thumb to ARM Veneer to fips_sha512_block_data_order 0x00056add   Thumb Code     8  anon$$obj.o(Veneer$$Code)
    Short Thumb to ARM Veneer to fips_sha256_block_data_order 0x00056ae5   Thumb Code     8  anon$$obj.o(Veneer$$Code)
    paddingToCheck                           0x00056aff   Data         224  tz_ta_crypto_static.o(.constdata)
    PubExp                                   0x00056bdf   Data           3  tz_ta_crypto_static.o(.constdata)
    Modulus                                  0x00056be2   Data         256  tz_ta_crypto_static.o(.constdata)
    DSA_version                              0x00056e01   Data          44  dsa_lib.o(.constdata)
    ASN1_version                             0x00056e3e   Data          49  asn1_lib.o(.constdata)
    RSA_version                              0x00056e6f   Data          47  rsa_lib.o(.constdata)
    FIPS_bn_version                          0x00056e9e   Data          54  bn_lib.o(.constdata)
    fips_sha512_version                      0x00056ed4   Data          51  sha512.o(.constdata)
    fips_sha256_version                      0x00056f07   Data          51  sha256.o(.constdata)
    lh_version                               0x00056f3a   Data          49  lhash.o(.constdata)
    STACK_version                            0x00056f6b   Data          49  stack.o(.constdata)
    fips_sha1_version                        0x00056f9c   Data          48  sha1dgst.o(.constdata)
    __stdin_name                             0x0005ae8d   Data           4  sys_io.o(.constdata)
    __stdout_name                            0x0005ae91   Data           4  sys_io.o(.constdata)
    __stderr_name                            0x0005ae95   Data           4  sys_io.o(.constdata)
    SS_RSA_certificate_eng                   0x0005bf94   Data        1393  tz_ta_sstorage_service.o(.constdata)
    SS_RSA_certificate_usr                   0x0005c505   Data        1465  tz_ta_sstorage_service.o(.constdata)
    SS_RSA_certificate_demo                  0x0005cabe   Data        1425  tz_ta_sstorage_service.o(.constdata)
    dummySHA256                              0x0005dabc   Data          32  tz_ta_sstorage_secdrv_interface.o(.constdata)
    aesGcmPDATA                              0x0005ff9c   Data         325  selftest.o(.constdata)
    aesGcmCDATA                              0x000600e1   Data         325  selftest.o(.constdata)
    aesGcmIV                                 0x00060226   Data         305  selftest.o(.constdata)
    aesGcmAAD                                0x00060357   Data         105  selftest.o(.constdata)
    aesGcmAUTHTAG                            0x000603c0   Data          80  selftest.o(.constdata)
    aesGcmKEY                                0x00060410   Data         160  selftest.o(.constdata)
    Vector1Hash256                           0x000604b0   Data          32  selftest.o(.constdata)
    Vector2Hash256                           0x000604d0   Data          32  selftest.o(.constdata)
    fips_des_sptrans                         0x00069998   Data        2048  des_enc.o(.constdata)
    __ctype                                  0x0006a24d   Data           0  lc_ctype_c.o(locale$$data)
    SHT$$INIT_ARRAY$$Base                    0x0006a480   Number         0  gaf.o(.init_array)
    SHT$$INIT_ARRAY$$Limit                   0x0006a504   Number         0  ecp_smpl.o(.init_array)
    TZ_APP_NAME                              0x0006b004   Data          12  tz_main.o(.data)
    SPID_COUNTER                             0x0006b010   Data           4  tz_main.o(.data)
    RECOUNT                                  0x0006b014   Data           4  tz_main.o(.data)
    ss_build_type                            0x0006b040   Data           4  tz_ta_sstorage_service.o(.data)
    ss_platform                              0x0006b044   Data           4  tz_ta_sstorage_service.o(.data)
    rMeiOILDn14919264819455402200            0x0006b184   Data           4  tz_ta_sstorage_secdrv_interface.o(.data)
    vtNecww14919264819455402200              0x0006b188   Data           4  tz_ta_sstorage_secdrv_interface.o(.data)
    g_caches                                 0x0006b1d4   Data           4  stub_secdrv.o(.data)
    max_taskstruct_offs                      0x0006b308   Data           4  task.o(.data)
    initAddr                                 0x0006b310   Data           8  task.o(.data)
    kaslr_magic                              0x0006b320   Data           4  ss_config.o(.data)
    kaslr_offset                             0x0006b324   Data           4  ss_config.o(.data)
    gafValidFlag                             0x0006b328   Data           4  gaf.o(.data)
    g_gaf                                    0x0006b32c   Data           4  gaf.o(.data)
    testVectorPBKDF                          0x0006b334   Data          64  selftest.o(.data)
    testVectorKDF                            0x0006b374   Data          16  selftest.o(.data)
    map_error                                0x0006b38c   Data           4  dumpdrv_hw_hal.o(.data)
    sram_size                                0x0006b5e8   Data           8  vmem_64.o(.data)
    membank0_size                            0x0006b5f0   Data           4  vmem_64.o(.data)
    membank1_start                           0x0006b5f4   Data           4  vmem_64.o(.data)
    memory_hole_offset                       0x0006b5f8   Data           4  vmem_64.o(.data)
    memory_hole_start                        0x0006b5fc   Data           4  vmem_64.o(.data)
    memory_hole_end                          0x0006b600   Data           4  vmem_64.o(.data)
    memory_hole_align                        0x0006b604   Data           4  vmem_64.o(.data)
    convert_error                            0x0006b608   Data           4  vmem_64.o(.data)
    virtual_hole_start                       0x0006b60c   Data           4  vmem_64.o(.data)
    virtual_hole_end                         0x0006b610   Data           4  vmem_64.o(.data)
    pgCmnlib                                 0x0006b614   Data           4  tzapp_lib_main.o(.data)
    tzapp_lib                                0x0006b618   Data           4  tzapp_lib_main.o(.data)
    cmnlib_rw_base                           0x0006b61c   Data           4  tzapp_lib_main.o(.data)
    app_rw_base                              0x0006b620   Data           4  tzapp_lib_main.o(.data)
    __stack_chk_guard                        0x0006b624   Data           4  tzapp_lib_main.o(.data)
    dummy_str                                0x0006b628   Data           4  tzapp_lib_main.o(.data)
    app_cmd_invoker_obj                      0x0006b62c   Data           8  tzapp_lib_main.o(.data)
    mink_api_service_obj                     0x0006b634   Data           8  tzapp_lib_main.o(.data)
    mink_user_sscall_service_obj             0x0006b63c   Data           8  tzapp_lib_main.o(.data)
    mink_opener_obj                          0x0006b644   Data           8  tzapp_lib_main.o(.data)
    magic_num                                0x0006b64c   Data          20  tzapp_lib_main.o(.data)
    magic_num_index_array                    0x0006b660   Data          10  tzapp_lib_main.o(.data)
    fips_cleanse_ctr                         0x0006b670   Data           1  mem_clr.o(.data)
    rand_drbg_ossl_meth                      0x0006bc58   Data          24  ctr_drbg_ossl.o(.data)
    obj_cleanup_defer                        0x0006bcc0   Data           4  obj_dat.o(.data)
    fips_post_cb                             0x00071540   Data           4  fips_post.o(.data)
    __aeabi_stdin                            0x000732cc   Data           4  stdio_streams.o(.data)
    __aeabi_stdout                           0x000732d0   Data           4  stdio_streams.o(.data)
    __aeabi_stderr                           0x000732d4   Data           4  stdio_streams.o(.data)
    tmp_name                                 0x0007f038   Data         256  task.o(.bss)
    so_vma                                   0x0007f138   Data        4200  task.o(.bss)
    so_vma_black_list                        0x000806b0   Data        4200  ss_parse_ustack.o(.bss)
    key_status                               0x00081848   Data         708  cryptolog.o(.bss)
    C_Log_Data                               0x00081b0c   Data         512  cryptolog.o(.bss)
    list_maps                                0x00082380   Data         320  ss_mapped_regions_registry.o(.bss)
    gAppCntxt                                0x000824c0   Data          20  tzapp_lib_main.o(.bss)
    application_heap                         0x000824d4   Data          52  tzapp_lib_main.o(.bss)
    mem_magic_number                         0x00082508   Data          12  tzapp_lib_main.o(.bss)
    apps_request_resp                        0x00082514   Data          20  tzapp_lib_main.o(.bss)
    acceptBuf                                0x00082528   Data         256  tzapp_lib_main.o(.bss)
    FIPS_signature                           0x00082d9c   Data          64  fips.o(.bss)
    __stdin                                  0x00082df0   Data          84  stdio_streams.o(.bss)
    __stdout                                 0x00082e44   Data          84  stdio_streams.o(.bss)
    __stderr                                 0x00082e98   Data          84  stdio_streams.o(.bss)
    Image$$TZ_APP_STACK$$ZI$$Base            0x00082ef4   Number         0  anon$$obj.o(TZ_APP_STACK.bss)
    Image$$TZ_APP_HEAP$$ZI$$Base             0x0008cef4   Number         0  anon$$obj.o(TZ_APP_HEAP.bss)
    Image$$TZ_APP_STACK$$ZI$$Limit           0x0008cef4   Number         0  anon$$obj.o(TZ_APP_STACK.bss)
    Image$$TZ_APP_HEAP$$ZI$$Limit            0x0018cef4   Number         0  anon$$obj.o(TZ_APP_HEAP.bss)



==============================================================================

Memory Map of the image

  Image Entry point : 0x00000000

  Load Region TZ_TEST_APP (Base: 0x00000000, Size: 0x0006a504, Max: 0xffffffff, PI)

    Execution Region TZ_APP_CODE (Base: 0x00000000, Size: 0x0006a504, Max: 0xffffffff, PI)

    Base Addr    Size         Type   Attr      Idx    E Section Name        Object

    0x00000000   0x0000007c   Code   RO            3  * TZAPPENTRYCODE      tzapp_entry.o
    0x0000007c   0x0000026e   Code   RO          120    .text               tz_ta_crypto_static.o
    0x000002ea   0x0000000e   Code   RO          245    .text               stub_secrsa.o
    0x000002f8   0x00000084   Code   RO          363    .text               ss_key_destruction.o
    0x0000037c   0x000006b2   Code   RO          377    .text               tz_ta_crypto_api_common.o
    0x00000a2e   0x00000dca   Code   RO          442    .text               ss_lable_processing.o
    0x000017f8   0x0000015c   Code   RO          463    .text               ss_key_management.o
    0x00001954   0x000003fc   Code   RO          558    .text               ss_key_management_wrapper.o
    0x00001d50   0x000000da   Code   RO          578    .text               ss_key_management_provisioned_key_wrapper.o
    0x00001e2a   0x000001de   Code   RO          590    .text               ss_key_management_hmac_key_generation.o
    0x00002008   0x00000138   Code   RO          602    .text               ss_memory_management.o
    0x00002140   0x0000015e   Code   RO          615    .text               ss_process_ss_id.o
    0x0000229e   0x0000019a   Code   RO          627    .text               X509v3_base64_decoder.o
    0x00002438   0x00000602   Code   RO          641    .text               X509v3_verify.o
    0x00002a3a   0x000000b2   Code   RO          671    .text               stub_secdrv.o
    0x00002aec   0x00000018   Code   RO          733    .text               gen_entropy.o
    0x00002b04   0x00000024   Code   RO          781    .text               ss_SHA256.o
    0x00002b28   0x00000024   Code   RO          825    .text               ss_SHA512.o
    0x00002b4c   0x00001192   Code   RO          837    .text               ss_SHORT_SHA256.o
    0x00003cde   0x00000190   Code   RO          851    .text               ss_hash.o
    0x00003e6e   0x0000001c   Code   RO          865    .text               ss_helper_functions.o
    0x00003e8a   0x000000fc   Code   RO          890    .text               ss_key_generation.o
    0x00003f86   0x000000c6   Code   RO         1029    .text               opcode.o
    0x0000404c   0x0000002a   Code   RO         1102    .text               ss_aes.o
    0x00004076   0x000000a4   Code   RO         1223    .text               dumpdrv_hw_hal.o
    0x0000411a   0x000001c4   Code   RO         1240    .text               ss_asn1.o
    0x000042de   0x00000064   Code   RO         1283    .text               ss_encoder.o
    0x00004342   0x0000025e   Code   RO         1341    .text               RSA.o
    0x000045a0   0x0000001a   Code   RO         1397    .text               ss_fips.o
    0x000045ba   0x0000002e   Code   RO         1423    .text               ss_CryptoCore_init.o
    0x000045e8   0x00000b40   Code   RO         1468    .text               dsa_gen.o
    0x00005128   0x000000e2   Code   RO         1577    .text               dsa_key.o
    0x0000520a   0x0000022c   Code   RO         1600    .text               dsa_lib.o
    0x00005436   0x00000010   Code   RO         1651    .text               dsa_sign.o
    0x00005446   0x0000000a   Code   RO         1669    .text               dsa_vrf.o
    0x00005450   0x000009d6   Code   RO         1727    .text               tzlib_proxy.lib(prxy_services.o)
    0x00005e26   0x000003c6   Code   RO         1968    .text               tzapp_entrylib.lib(qsee_crypto_shim.o)
    0x000061ec   0x0000003a   Code   RO         2185    .text               crypto_core.lib(pd_rand.o)
    0x00006226   0x000000b4   Code   RO         2269    .text               crypto_core.lib(a_dup.o)
    0x000062da   0x00000260   Code   RO         2321    .text               crypto_core.lib(tasn_fre.o)
    0x0000653a   0x000008c2   Code   RO         2343    .text               crypto_core.lib(tasn_enc.o)
    0x00006dfc   0x0000034e   Code   RO         2431    .text               crypto_core.lib(tasn_new.o)
    0x0000714a   0x000006bc   Code   RO         2445    .text               crypto_core.lib(ex_data.o)
    0x00007806   0x000002ac   Code   RO         2551    .text               crypto_core.lib(rsa_lib.o)
    0x00007ab2   0x00000006   Code   RO         2613    .text               crypto_core.lib(err.o)
    0x00007ab8   0x00000304   Code   RO         2625    .text               crypto_core.lib(bn_ctx.o)
    0x00007dbc   0x000002be   Code   RO         2678    .text               crypto_core.lib(bn_add.o)
    0x0000807a   0x00000548   Code   RO         2707    .text               crypto_core.lib(bn_mont.o)
    0x000085c2   0x000003ac   Code   RO         2733    .text               crypto_core.lib(bn_div.o)
    0x0000896e   0x000002c0   Code   RO         2745    .text               crypto_core.lib(bn_shift.o)
    0x00008c2e   0x0000077c   Code   RO         2786    .text               crypto_core.lib(bn_prime.o)
    0x000093aa   0x00000786   Code   RO         2810    .text               crypto_core.lib(bn_gcd.o)
    0x00009b30   0x00000188   Code   RO         2895    .text               crypto_core.lib(ec_oct.o)
    0x00009cb8   0x00000026   Code   RO         2918    .text               crypto_core.lib(ech_key.o)
    0x00009cde   0x0000026e   Code   RO         3046    .text               crypto_core.lib(rsa_crpt.o)
    0x00009f4c   0x00000224   Code   RO         3145    .text               crypto_core.lib(fips_rand_lib.o)
    0x0000a170   0x00000066   Code   RO         3175    .text               tzapp_entrylib.lib(qsee_cache_shim.o)
    0x0000a1d6   0x0000031e   Code   RO         3187    .text               crypto_core.lib(ctr_drbg_ossl.o)
    0x0000a4f4   0x00000016   Code   RO         3210    .text               crypto_core.lib(libc_functions.o)
    0x0000a50a   0x00000028   Code   RO         3227    .text               crypto_core.lib(ech_lib.o)
    0x0000a532   0x00000180   Code   RO         3274    .text               crypto_core.lib(a_object.o)
    0x0000a6b2   0x000001ac   Code   RO         3287    .text               crypto_core.lib(tasn_utl.o)
    0x0000a85e   0x000000dc   Code   RO         3300    .text               crypto_core.lib(a_type.o)
    0x0000a93a   0x00000510   Code   RO         3312    .text               crypto_core.lib(a_int.o)
    0x0000ae4a   0x000002e8   Code   RO         3360    .text               crypto_core.lib(a_bitstr.o)
    0x0000b132   0x0000000e   Code   RO         3373    .text               crypto_core.lib(c_all.o)
    0x0000b140   0x0000007e   Code   RO         3394    .text               crypto_core.lib(names.o)
    0x0000b1be   0x00000068   Code   RO         3408    .text               crypto_core.lib(evp_lib.o)
    0x0000b226   0x0000031e   Code   RO         3420    .text               crypto_core.lib(stack.o)
    0x0000b544   0x000000ba   Code   RO         3436    .text               crypto_core.lib(buffer.o)
    0x0000b5fe   0x0000069c   Code   RO         3520    .text               crypto_core.lib(ecp_oct.o)
    0x0000bc9a   0x000002c6   Code   RO         3574    .text               crypto_core.lib(bn_recp.o)
    0x0000bf60   0x00000fe0   Code   RO         3587    .text               crypto_core.lib(bn_mul.o)
    0x0000cf40   0x000002bc   Code   RO         3599    .text               crypto_core.lib(bn_sqr.o)
    0x0000d1fc   0x00001476   Code   RO         3611    .text               crypto_core.lib(bn_asm.o)
    0x0000e672   0x0000031c   Code   RO         3630    .text               crypto_core.lib(bn_blind.o)
    0x0000e98e   0x00000224   Code   RO         3648    .text               crypto_core.lib(bn_word.o)
    0x0000ebb2   0x000001e0   Code   RO         3725    .text               crypto_core.lib(sha1dgst.o)
    0x0000ed92   0x00000016   Code   RO         3744    .text               crypto_core.lib(thr_id.o)
    0x0000eda8   0x00000002   Code   RO         3762    .text               crypto_core.lib(cryptlib.o)
    0x0000edaa   0x0000017e   Code   RO         3804    .text               crypto_core.lib(fips_drbg_rand.o)
    0x0000ef28   0x00000556   Code   RO         3933    .text               crypto_core.lib(ctr_drbg.o)
    0x0000f47e   0x000001ea   Code   RO         3987    .text               crypto_core.lib(bn_kron.o)
    0x0000f668   0x00000002   Code   RO         4052    .text               crypto_core.lib(c_allc.o)
    0x0000f66a   0x000001c2   Code   RO         4076    .text               crypto_core.lib(o_names.o)
    0x0000f82c   0x0000012a   Code   RO         4099    .text               crypto_core.lib(obj_lib.o)
    0x0000f956   0x00000044   Code   RO         4135    .text               crypto_core.lib(ec_cvt.o)
    0x0000f99a   0x00000168   Code   RO         4183    .text               crypto_core.lib(rsa_ssl.o)
    0x0000fb02   0x0000013c   Code   RO         4204    .text               crypto_core.lib(rsa_x931.o)
    0x0000fc3e   0x000003a4   Code   RO         4216    .text               crypto_core.lib(rsa_oaep.o)
    0x0000ffe2   0x0000008c   Code   RO         4240    .text               crypto_core.lib(rsa_none.o)
    0x0001006e   0x00000242   Code   RO         4252    .text               crypto_core.lib(rsa_pk1.o)
    0x000102b0   0x00000052   Code   RO         4264    .text               crypto_core.lib(fips_lck.o)
    0x00010302   0x0000005a   Code   RO         4287    .text               crypto_core.lib(fips_mem.o)
    0x0001035c   0x00000052   Code   RO         4308    .text               crypto_core.lib(fips_err.o)
    0x000103ae   0x0000022a   Code   RO         4341    .text               crypto_core.lib(fips_ecdh_selftest.o)
    0x000105d8   0x00000104   Code   RO         4392    .text               crypto_core.lib(fips_ecdsa_selftest.o)
    0x000106dc   0x00000132   Code   RO         4409    .text               crypto_core.lib(fips_hmac_selftest.o)
    0x0001080e   0x00000624   Code   RO         4436    .text               crypto_core.lib(fips_drbg_ctr.o)
    0x00010e32   0x00001794   Code   RO         4528    .text               crypto_core.lib(fips_drbg_selftest.o)
    0x000125c6   0x00000134   Code   RO         4545    .text               crypto_core.lib(fips_rand_selftest.o)
    0x000126fa   0x0000052c   Code   RO         4633    .text               crypto_core.lib(fips_aes_selftest.o)
    0x00012c26   0x0000013e   Code   RO         4649    .text               crypto_core.lib(fips_cmac_selftest.o)
    0x00012d64   0x00000070   Code   RO         4668    .text               crypto_core.lib(fips_des_selftest.o)
    0x00012dd4   0x000004ae   Code   RO         4751    .text               crypto_core.lib(e_des3.o)
    0x00013282   0x000003f0   Code   RO         4822    .text               crypto_core.lib(rsa_pss.o)
    0x00013672   0x000000a4   Code   RO         4847    .text               crypto_core.lib(fips_rsa_lib.o)
    0x00013716   0x00000278   Code   RO         4875    .text               crypto_core.lib(set_key.o)
    0x0001398e   0x00002cf6   Code   RO         4900    .text               crypto_core.lib(des_enc.o)
    0x00016684   0x00000142   Code   RO         4920    .text               crypto_core.lib(ofb64ede.o)
    0x000167c6   0x0000058c   Code   RO         4932    .text               crypto_core.lib(cfb64ede.o)
    0x00016d52   0x00000082   Code   RO         4946    .text               crypto_core.lib(ecb3_enc.o)
    0x00016dd4   0x000000ce   Code   RO         4973    .text               crypto_core.lib(ofb128.o)
    0x00016ea2   0x0000075a   Code   RO         4987    .text               crypto_core.lib(ccm128.o)
    0x000175fc   0x000002c6   Code   RO         4999    .text               crypto_core.lib(xts128.o)
    0x000178c2   0x00000222   Code   RO         5012    .text               crypto_core.lib(ctr128.o)
    0x00017ae4   0x00000362   Code   RO         5025    .text               crypto_core.lib(cfb128.o)
    0x00017e46   0x000001f4   Code   RO         5037    .text               crypto_core.lib(cbc128.o)
    0x0001803a   0x00000026   Code   RO         5057    .text               c_2e.l(llushr.o)
    0x00018060   0x00000052   Code   RO         5075    .text               c_2e.l(_printf_pad.o)
    0x000180b2   0x00000052   Code   RO         5077    .text               c_2e.l(_printf_str.o)
    0x00018104   0x0000000e   Code   RO         5112    i._is_digit         c_2e.l(__printf_wp.o)
    0x00018112   0x00000000   Code   RO         5127    .ARM.Collect$$_printf_percent$$00000000  c_2e.l(_printf_percent.o)
    0x00018112   0x00000006   Code   RO         5250    .ARM.Collect$$_printf_percent$$00000001  c_2e.l(_printf_n.o)
    0x00018118   0x00000006   Code   RO         5251    .ARM.Collect$$_printf_percent$$00000002  c_2e.l(_printf_p.o)
    0x0001811e   0x00000006   Code   RO         5254    .ARM.Collect$$_printf_percent$$00000003  c_2e.l(_printf_f.o)
    0x00018124   0x00000006   Code   RO         5255    .ARM.Collect$$_printf_percent$$00000004  c_2e.l(_printf_e.o)
    0x0001812a   0x00000006   Code   RO         5256    .ARM.Collect$$_printf_percent$$00000005  c_2e.l(_printf_g.o)
    0x00018130   0x00000006   Code   RO         5257    .ARM.Collect$$_printf_percent$$00000006  c_2e.l(_printf_a.o)
    0x00018136   0x0000000a   Code   RO         5262    .ARM.Collect$$_printf_percent$$00000007  c_2e.l(_printf_ll.o)
    0x00018140   0x00000006   Code   RO         5253    .ARM.Collect$$_printf_percent$$00000008  c_2e.l(_printf_i.o)
    0x00018146   0x00000006   Code   RO         5125    .ARM.Collect$$_printf_percent$$00000009  c_2e.l(_printf_d.o)
    0x0001814c   0x00000006   Code   RO         5126    .ARM.Collect$$_printf_percent$$0000000A  c_2e.l(_printf_u.o)
    0x00018152   0x00000006   Code   RO         5252    .ARM.Collect$$_printf_percent$$0000000B  c_2e.l(_printf_o.o)
    0x00018158   0x00000006   Code   RO         5124    .ARM.Collect$$_printf_percent$$0000000C  c_2e.l(_printf_x.o)
    0x0001815e   0x00000006   Code   RO         5259    .ARM.Collect$$_printf_percent$$0000000D  c_2e.l(_printf_lli.o)
    0x00018164   0x00000006   Code   RO         5260    .ARM.Collect$$_printf_percent$$0000000E  c_2e.l(_printf_lld.o)
    0x0001816a   0x00000006   Code   RO         5261    .ARM.Collect$$_printf_percent$$0000000F  c_2e.l(_printf_llu.o)
    0x00018170   0x00000006   Code   RO         5266    .ARM.Collect$$_printf_percent$$00000010  c_2e.l(_printf_llo.o)
    0x00018176   0x00000006   Code   RO         5267    .ARM.Collect$$_printf_percent$$00000011  c_2e.l(_printf_llx.o)
    0x0001817c   0x0000000a   Code   RO         5263    .ARM.Collect$$_printf_percent$$00000012  c_2e.l(_printf_l.o)
    0x00018186   0x00000006   Code   RO         5122    .ARM.Collect$$_printf_percent$$00000013  c_2e.l(_printf_c.o)
    0x0001818c   0x00000006   Code   RO         5123    .ARM.Collect$$_printf_percent$$00000014  c_2e.l(_printf_s.o)
    0x00018192   0x00000006   Code   RO         5264    .ARM.Collect$$_printf_percent$$00000015  c_2e.l(_printf_lc.o)
    0x00018198   0x00000006   Code   RO         5265    .ARM.Collect$$_printf_percent$$00000016  c_2e.l(_printf_ls.o)
    0x0001819e   0x00000004   Code   RO         5258    .ARM.Collect$$_printf_percent$$00000017  c_2e.l(_printf_percent_end.o)
    0x000181a2   0x00000262   Code   RO         5128    .text               c_2e.l(qsortnoex.o)
    0x00018404   0x00000014   Code   RO         5130    .text               c_2e.l(strchr.o)
    0x00018418   0x00000024   Code   RO         5132    .text               c_2e.l(strstr.o)
    0x0001843c   0x00000058   Code   RO         5134    .text               c_2e.l(memcmp.o)
    0x00018494   0x00000046   Code   RO         5136    .text               c_2e.l(strcpy.o)
    0x000184da   0x0000003a   Code   RO         5138    .text               c_2e.l(strlen.o)
    0x00018514   0x00000010   Code   RO         5150    .text               c_2e.l(aeabi_memset.o)
    0x00018524   0x00000044   Code   RO         5152    .text               c_2e.l(rt_memclr.o)
    0x00018568   0x0000004e   Code   RO         5154    .text               c_2e.l(rt_memclr_w.o)
    0x000185b6   0x00000016   Code   RO         5162    .text               c_2e.l(uread4.o)
    0x000185cc   0x00000016   Code   RO         5164    .text               c_2e.l(uwrite4.o)
    0x000185e2   0x00000016   Code   RO         5189    x$fpl$drsb          fz_2s.l(daddsub_clz.o)
    0x000185f8   0x0000002e   Code   RO         5199    x$fpl$dflt          fz_2s.l(dflt_clz.o)
    0x00018626   0x0000006c   Code   RO         5208    x$fpl$drleqf        fz_2s.l(drleqf.o)
    0x00018692   0x00000024   Code   RO         5223    .text               c_2e.l(_printf_truncate.o)
    0x000186b6   0x000000b8   Code   RO         5225    .text               c_2e.l(_printf_intcommon.o)
    0x0001876e   0x0000002a   Code   RO         5227    .text               c_2e.l(_printf_charcount.o)
    0x00018798   0x0000000a   Code   RO         5231    .text               c_2e.l(_sputc.o)
    0x000187a2   0x00000010   Code   RO         5233    .text               c_2e.l(_snputc.o)
    0x000187b2   0x0000002c   Code   RO         5235    .text               c_2e.l(_printf_char.o)
    0x000187de   0x00000000   Code   RO         5285    .ARM.Collect$$libinit$$00000008  c_2e.l(libinit2.o)
    0x000187de   0x00000000   Code   RO         5294    .ARM.Collect$$libinit$$00000011  c_2e.l(libinit2.o)
    0x000187de   0x00000000   Code   RO         5298    .ARM.Collect$$libinit$$00000015  c_2e.l(libinit2.o)
    0x000187de   0x00000000   Code   RO         5312    .ARM.Collect$$libinit$$00000023  c_2e.l(libinit2.o)
    0x000187de   0x00000000   Code   RO         5322    .ARM.Collect$$libinit$$00000030  c_2e.l(libinit2.o)
    0x000187de   0x00000018   Code   RO         5324    x$fpl$dcmpinf       fz_2s.l(dcmpi.o)
    0x000187f6   0x0000009c   Code   RO         5326    x$fpl$dnaninf       fz_2s.l(dnaninf.o)
    0x00018892   0x0000000c   Code   RO         5328    x$fpl$dretinf       fz_2s.l(dretinf.o)
    0x0001889e   0x00000004   Code   RO         5330    x$fpl$printf1       fz_2s.l(printf1.o)
    0x000188a2   0x00000000   Code   RO         5332    x$fpl$usenofp       fz_2s.l(usenofp.o)
    0x000188a2   0x00000418   Code   RO         5340    .text               c_2e.l(_printf_fp_dec.o)
    0x00018cba   0x0000002c   Code   RO         5344    .text               c_2e.l(_printf_wchar.o)
    0x00018ce6   0x00000008   Code   RO         5346    .text               c_2e.l(ferror.o)
    0x00018cee   0x0000001a   Code   RO         5349    i.fputc             c_2e.l(fputc.o)
    0x00018d08   0x00000040   Code   RO         5360    .text               c_2e.l(_wcrtomb.o)
    0x00018d48   0x00000066   Code   RO         5366    .text               c_2e.l(sys_io.o)
    0x00018dae   0x0000004e   Code   RO         5375    .text               c_2e.l(h1_free.o)
    0x00018dfc   0x0000003e   Code   RO         5434    CL$$btod_d2e        c_2e.l(btod.o)
    0x00018e3a   0x00000060   Code   RO         5435    CL$$btod_d2e_norm_op1  c_2e.l(btod.o)
    0x00018e9a   0x00000046   Code   RO         5436    CL$$btod_d2e_denorm_low  c_2e.l(btod.o)
    0x00018ee0   0x00000028   Code   RO         5437    CL$$btod_emul       c_2e.l(btod.o)
    0x00018f08   0x00000028   Code   RO         5438    CL$$btod_ediv       c_2e.l(btod.o)
    0x00018f30   0x000000c6   Code   RO         5441    CL$$btod_e2e        c_2e.l(btod.o)
    0x00018ff6   0x00000244   Code   RO         5443    CL$$btod_mult_common  c_2e.l(btod.o)
    0x0001923a   0x00000338   Code   RO         5444    CL$$btod_div_common  c_2e.l(btod.o)
    0x00019572   0x000001de   Code   RO         5456    .text               c_2e.l(flsbuf.o)
    0x00019750   0x00000046   Code   RO         5458    .text               c_2e.l(setvbuf.o)
    0x00019796   0x0000004c   Code   RO         5463    .text               c_2e.l(fclose.o)
    0x000197e2   0x0000000e   Code   RO         5476    .text               c_2e.l(defsig_rtred_outer.o)
    0x000197f0   0x00000000   Code   RO         5486    .ARM.Collect$$libshutdown$$00000003  c_2e.l(libshutdown2.o)
    0x000197f0   0x00000028   Code   RO         5503    i.__ARM_fpclassify  m_2s.l(fpclassify.o)
    0x00019818   0x00000002   Code   RO         5505    .text               c_2e.l(use_no_semi.o)
    0x0001981a   0x00000000   Code   RO         5507    .text               c_2e.l(indicate_semi.o)
    0x0001981a   0x00000004   Code   RO         5515    .text               c_2e.l(hguard.o)
    0x0001981e   0x00000088   Code   RO         5519    .text               c_2e.l(init_alloc.o)
    0x000198a6   0x0000005e   Code   RO         5525    .text               c_2e.l(h1_alloc.o)
    0x00019904   0x0000000a   Code   RO         5549    .text               c_2e.l(defsig_exit.o)
    0x0001990e   0x0000000e   Code   RO         5555    .text               c_2e.l(defsig_rtmem_outer.o)
    0x0001991c   0x0000000e   Code   RO         5565    .text               c_2e.l(h1_init.o)
    0x0001992a   0x00000032   Code   RO         5567    .text               c_2e.l(h1_extend.o)
    0x0001995c   0x00000046   Code   RO         5577    .text               c_2e.l(ftell.o)
    0x000199a2   0x00000032   Code   RO         5585    .text               c_2e.l(defsig_general.o)
    0x000199d4   0x0000000e   Code   RO         5596    .text               c_2e.l(sys_wrch.o)
    0x000199e2   0x00000002   PAD
    0x000199e4   0x0000012c   Code   RO            8    .text               tz_main.o
    0x00019b10   0x00000270   Code   RO          277    .text               tz_key_wrapping.o
    0x00019d80   0x00004cea   Code   RO          301    .text               tz_ta_sstorage_service.o
    0x0001ea6a   0x00000002   PAD
    0x0001ea6c   0x00000240   Code   RO          405    .text               ss_key_encryption.o
    0x0001ecac   0x00000460   Code   RO          421    .text               ss_discrete_hannover_transform.o
    0x0001f10c   0x0000085c   Code   RO          495    .text               ss_key_management_skmm_key_generation.o
    0x0001f968   0x000010b0   Code   RO          519    .text               ss_key_management_lsm.o
    0x00020a18   0x00000148   Code   RO          539    .text               ss_key_management_helper_functions.o
    0x00020b60   0x00000b64   Code   RO          653    .text               tz_ta_sstorage_secdrv_interface.o
    0x000216c4   0x000007e0   Code   RO          752    .text               ss_memory_internal.o
    0x00021ea4   0x0000003a   Code   RO          807    .text               ss_SKEIN.o
    0x00021ede   0x00000002   PAD
    0x00021ee0   0x00006796   Code   RO          908    .text               task.o
    0x00028676   0x00000002   PAD
    0x00028678   0x00000b44   Code   RO          984    .text               ss_parse_ustack.o
    0x000291bc   0x000018ce   Code   RO         1009    .text               ss_config.o
    0x0002aa8a   0x00000002   PAD
    0x0002aa8c   0x000002a4   Code   RO         1043    .text               gaf.o
    0x0002ad30   0x00000518   Code   RO         1069    .text               dmp.o
    0x0002b248   0x00000338   Code   RO         1087    .text               cache_table.o
    0x0002b580   0x000002dc   Code   RO         1126    .text               odex.o
    0x0002b85c   0x00000588   Code   RO         1144    .text               tz_prng.o
    0x0002bde4   0x00000834   Code   RO         1164    .text               selftest.o
    0x0002c618   0x00000408   Code   RO         1182    .text               cryptolog.o
    0x0002ca20   0x000007e8   Code   RO         1206    .text               ss_mapped_regions_registry.o
    0x0002d208   0x0000025c   Code   RO         1260    .text               asn1.o
    0x0002d464   0x0000035c   Code   RO         1295    .text               ECDH.o
    0x0002d7c0   0x000000e6   Code   RO         1383    .text               AES.o
    0x0002d8a6   0x00000002   PAD
    0x0002d8a8   0x00000f08   Code   RO         1443    .text               ss_ta_asymmetric_crypto_api.o
    0x0002e7b0   0x00000190   Code   RO         1516    .text               x_long.o
    0x0002e940   0x00000374   Code   RO         1547    .text               dsa_asn1.o
    0x0002ecb4   0x00000ab8   Code   RO         1625    .text               dsa_ossl.o
    0x0002f76c   0x000007a0   Code   RO         1689    .text               vmem_64.o
    0x0002ff0c   0x00000318   Code   RO         1713    .text               kernel_stack_64.o
    0x00030224   0x0000065c   Code   RO         1995    .text               tzapp_entrylib.lib(tzapp_lib_main.o)
    0x00030880   0x0000001e   Code   RO         2040    .text               crypto_core.lib(cryptolib_init.o)
    0x0003089e   0x00000002   PAD
    0x000308a0   0x000000cc   Code   RO         2208    .text               crypto_core.lib(mem_clr.o)
    0x0003096c   0x00001180   Code   RO         2233    .text               crypto_core.lib(tasn_dec.o)
    0x00031aec   0x000009e0   Code   RO         2367    .text               crypto_core.lib(tasn_typ.o)
    0x000324cc   0x00000124   Code   RO         2388    .text               crypto_core.lib(x_bignum.o)
    0x000325f0   0x00000560   Code   RO         2412    .text               crypto_core.lib(asn1_lib.o)
    0x00032b50   0x00000610   Code   RO         2477    .text               crypto_core.lib(mem.o)
    0x00033160   0x0000049c   Code   RO         2506    .text               crypto_core.lib(rsa_sign.o)
    0x000335fc   0x00000060   Code   RO         2578    .text               crypto_core.lib(o_fips.o)
    0x0003365c   0x00000dc2   Code   RO         2660    .text               crypto_core.lib(bn_exp.o)
    0x0003441e   0x00000002   PAD
    0x00034420   0x000002aa   Code   RO         2695    .text               crypto_core.lib(bn_mod.o)
    0x000346ca   0x00000002   PAD
    0x000346cc   0x000002bc   Code   RO         2766    .text               crypto_core.lib(bn_rand.o)
    0x00034988   0x00000872   Code   RO         2822    .text               crypto_core.lib(bn_lib.o)
    0x000351fa   0x00000002   PAD
    0x000351fc   0x00000768   Code   RO         2840    .text               crypto_core.lib(ec_key.o)
    0x00035964   0x00000daa   Code   RO         2871    .text               crypto_core.lib(ec_lib.o)
    0x0003670e   0x00000002   PAD
    0x00036710   0x00000162   Code   RO         2942    .text               crypto_core.lib(m_sha1.o)
    0x00036872   0x00000002   PAD
    0x00036874   0x00000318   Code   RO         2967    .text               crypto_core.lib(hmac.o)
    0x00036b8c   0x0000119a   Code   RO         2992    .text               crypto_core.lib(gcm128.o)
    0x00037d26   0x00000002   PAD
    0x00037d28   0x000005c8   Code   RO         3020    .text               crypto_core.lib(rsa_gen.o)
    0x000382f0   0x00000484   Code   RO         3070    .text               crypto_core.lib(sha512.o)
    0x00038774   0x00000358   Code   RO         3093    .text               crypto_core.lib(sha256.o)
    0x00038acc   0x000004cc   Code   RO         3119    .text               crypto_core.lib(fips_md.o)
    0x00038f98   0x00001278   Code   RO         3171    .text               crypto_core.lib(aes-armv4-cc.o)
    0x0003a210   0x0000041e   Code   RO         3253    .text               crypto_core.lib(lhash.o)
    0x0003a62e   0x00000002   PAD
    0x0003a630   0x000000a8   Code   RO         3327    .text               crypto_core.lib(x_sig.o)
    0x0003a6d8   0x0000b584   Code   RO         3453    .text               crypto_core.lib(obj_dat.o)
    0x00045c5c   0x00000b28   Code   RO         3474    .text               crypto_core.lib(b_print.o)
    0x00046784   0x0000022c   Code   RO         3491    .text               crypto_core.lib(rand_lib.o)
    0x000469b0   0x00000076   Code   RO         3540    .text               crypto_core.lib(o_init.o)
    0x00046a26   0x00000002   PAD
    0x00046a28   0x00000d70   Code   RO         3660    .text               crypto_core.lib(ec_mult.o)
    0x00047798   0x0000079c   Code   RO         3673    .text               crypto_core.lib(ec_curve.o)
    0x00047f34   0x00000f9c   Code   RO         3699    .text               crypto_core.lib(rsa_eay.o)
    0x00048ed0   0x000006c0   Code   RO         3774    .text               crypto_core.lib(fips_drbg_lib.o)
    0x00049590   0x00000438   Code   RO         3832    .text               crypto_core.lib(fips_rand.o)
    0x000499c8   0x000003d0   Code   RO         3866    .text               crypto_core.lib(fips.o)
    0x00049d98   0x000004dc   Code   RO         3901    .text               crypto_core.lib(fips_post.o)
    0x0004a274   0x000001d8   Code   RO         3917    .text               crypto_core.lib(armv4-mont-cc.o)
    0x0004a44c   0x00000274   Code   RO         3921    .text               crypto_core.lib(ghash-armv4-cc.o)
    0x0004a6c0   0x00001050   Code   RO         3925    .text               crypto_core.lib(sha256-armv4-cc.o)
    0x0004b710   0x000001e0   Code   RO         3952    .text               crypto_core.lib(x_algor.o)
    0x0004b8f0   0x00000562   Code   RO         4005    .text               crypto_core.lib(bn_sqrt.o)
    0x0004be52   0x00000002   PAD
    0x0004be54   0x00000098   Code   RO         4024    .text               crypto_core.lib(ecs_asn1.o)
    0x0004beec   0x00000064   Code   RO         4064    .text               crypto_core.lib(c_alld.o)
    0x0004bf50   0x00000074   Code   RO         4112    .text               crypto_core.lib(rand_poll_target.o)
    0x0004bfc4   0x0000027c   Code   RO         4155    .text               crypto_core.lib(ech_ossl.o)
    0x0004c240   0x000007b8   Code   RO         4322    .text               crypto_core.lib(fips_enc.o)
    0x0004c9f8   0x0000017c   Code   RO         4369    .text               crypto_core.lib(fips_ecdsa_sign.o)
    0x0004cb74   0x000006f0   Code   RO         4461    .text               crypto_core.lib(fips_drbg_ec.o)
    0x0004d264   0x000004e4   Code   RO         4487    .text               crypto_core.lib(fips_drbg_hmac.o)
    0x0004d748   0x000005fc   Code   RO         4515    .text               crypto_core.lib(fips_drbg_hash.o)
    0x0004dd44   0x00000696   Code   RO         4570    .text               crypto_core.lib(fips_rsa_sign.o)
    0x0004e3da   0x00000002   PAD
    0x0004e3dc   0x0000012c   Code   RO         4592    .text               crypto_core.lib(fips_rsa_selftest.o)
    0x0004e508   0x00000064   Code   RO         4610    .text               crypto_core.lib(fips_sha1_selftest.o)
    0x0004e56c   0x00000004   Ven    RO         4684    .text               crypto_core.lib(sha1-armv4-large-cc.o)
    0x0004e570   0x00000558   Code   RO         4684    .text               crypto_core.lib(sha1-armv4-large-cc.o)
    0x0004eac8   0x00000494   Code   RO         4688    .text               crypto_core.lib(cmac.o)
    0x0004ef5c   0x000003f4   Code   RO         4712    .text               crypto_core.lib(ecp_mont.o)
    0x0004f350   0x00000824   Code   RO         4726    .text               crypto_core.lib(ecs_ossl.o)
    0x0004fb74   0x00001024   Code   RO         4793    .text               crypto_core.lib(e_aes.o)
    0x00050b98   0x0000003c   Code   RO         4860    .text               crypto_core.lib(aes_cbc.o)
    0x00050bd4   0x00001700   Code   RO         4958    .text               crypto_core.lib(ecp_smpl.o)
    0x000522d4   0x00000010   Code   RO         5053    .text               c_2e.l(rt_ctype_table.o)
    0x000522e4   0x00000330   Code   RO         5055    .text               c_2e.l(lludiv5.o)
    0x00052614   0x00000034   Code   RO         5059    .text               c_2e.l(c89vsnprintf.o)
    0x00052648   0x0000001c   Code   RO         5061    .text               c_2e.l(__2printf.o)
    0x00052664   0x0000002c   Code   RO         5063    .text               c_2e.l(__2sprintf.o)
    0x00052690   0x00000038   Code   RO         5065    .text               c_2e.l(__2snprintf.o)
    0x000526c8   0x00000074   Code   RO         5079    .text               c_2e.l(_printf_dec.o)
    0x0005273c   0x0000009c   Code   RO         5099    .text               c_2e.l(_printf_hex_int_ll_ptr.o)
    0x000527d8   0x00000188   Code   RO         5119    .text               c_2e.l(__printf_flags_ss_wp.o)
    0x00052960   0x00000030   Code   RO         5140    .text               c_2e.l(memchr.o)
    0x00052990   0x000000f0   Code   RO         5142    .text               c_2e.l(strncmp.o)
    0x00052a80   0x0000000c   Code   RO         5144    .text               c_2e.l(memcpy.o)
    0x00052a8c   0x00000004   Ven    RO         5146    .text               c_2e.l(rt_memcpy.o)
    0x00052a90   0x000000d4   Code   RO         5146    .text               c_2e.l(rt_memcpy.o)
    0x00052b64   0x000000d4   Code   RO         5148    .text               c_2e.l(rt_memmove.o)
    0x00052c38   0x0000007c   Code   RO         5156    .text               c_2e.l(rt_memcpy_w_qsp.o)
    0x00052cb4   0x0000006c   Code   RO         5158    .text               c_2e.l(strncpy.o)
    0x00052d20   0x00000004   Ven    RO         5160    .text               c_2e.l(strcmp.o)
    0x00052d24   0x000000a0   Code   RO         5160    .text               c_2e.l(strcmp.o)
    0x00052dc4   0x0000022c   Code   RO         5166    .text               c_2e.l(aeabi_sdivfast_rs.o)
    0x00052ff0   0x00000030   Code   RO         5167    .text_udiv          c_2e.l(aeabi_sdivfast_rs.o)
    0x00053020   0x00000024   Code   RO         5185    .text               c_2e.l(init_aeabi.o)
    0x00053044   0x00000150   Code   RO         5188    x$fpl$dadd          fz_2s.l(daddsub_clz.o)
    0x00053194   0x000001d4   Code   RO         5190    x$fpl$dsub          fz_2s.l(daddsub_clz.o)
    0x00053368   0x0000005e   Code   RO         5194    x$fpl$dfix          fz_2s.l(dfix.o)
    0x000533c6   0x00000002   PAD
    0x000533c8   0x00000078   Code   RO         5204    x$fpl$dleqf         fz_2s.l(dleqf.o)
    0x00053440   0x00000154   Code   RO         5206    x$fpl$dmul          fz_2s.l(dmul.o)
    0x00053594   0x0000000c   Code   RO         5218    .text               c_2e.l(rt_locale.o)
    0x000535a0   0x00000030   Code   RO         5229    .text               c_2e.l(_printf_char_common.o)
    0x000535d0   0x00000024   Code   RO         5237    .text               c_2e.l(_printf_char_file.o)
    0x000535f4   0x000000b8   Code   RO         5239    .text               c_2e.l(_printf_wctomb.o)
    0x000536ac   0x00000078   Code   RO         5242    .text               c_2e.l(_printf_longlong_dec.o)
    0x00053724   0x00000078   Code   RO         5248    .text               c_2e.l(_printf_oct_int_ll.o)
    0x0005379c   0x0000002c   Code   RO         5275    locale$$code        c_2e.l(lc_ctype_c.o)
    0x000537c8   0x00000080   Code   RO         5277    .text               c_2e.l(rt_memmove_w.o)
    0x00053848   0x0000002c   Code   RO         5279    .text               c_2e.l(rtudiv10.o)
    0x00053874   0x00000098   Code   RO         5338    .text               c_2e.l(lludiv10.o)
    0x0005390c   0x0000015c   Code   RO         5352    .text               c_2e.l(initio.o)
    0x00053a68   0x00000080   Code   RO         5429    .text               c_2e.l(_printf_fp_infnan.o)
    0x00053ae8   0x000000d8   Code   RO         5431    .text               c_2e.l(bigflt0.o)
    0x00053bc0   0x000000ec   Code   RO         5461    .text               c_2e.l(fopen.o)
    0x00053cac   0x0000002c   Code   RO         5470    locale$$code        c_2e.l(lc_numeric_c.o)
    0x00053cd8   0x0000000c   Code   RO         5510    .text               c_2e.l(rt_heap_descriptor.o)
    0x00053ce4   0x000000f8   Code   RO         5541    .text               c_2e.l(fseek.o)
    0x00053ddc   0x000000f0   Code   RO         5543    .text               c_2e.l(stdio.o)
    0x00053ecc   0x00000034   Code   RO         5553    .text               c_2e.l(defsig_rtred_inner.o)
    0x00053f00   0x0000000c   Code   RO         5561    .text               c_2e.l(sys_exit.o)
    0x00053f0c   0x00000000   Code   RO         5563    .emb_text           c_2e.l(maybetermalloc1.o)
    0x00053f0c   0x00000050   Code   RO         5587    .text               c_2e.l(defsig_rtmem_inner.o)
    0x00053f5c   0x00000050   Code   RO         5589    .text               c_2e.l(heapauxa.o)
    0x00053fac   0x0000000c   Code   RO         5598    .text               c_2e.l(rt_errno_addr.o)
    0x00053fb8   0x000022e8   Code   RO          806    .text               ss_SKEIN.o
    0x000562a0   0x00000738   Code   RO         3929    .text               crypto_core.lib(sha512-armv4-cc.o)
    0x000569d8   0x00000028   PAD
    0x00056a00   0x000000c4   Code   RO         1992    tzapp_syscall_asm   tzapp_entrylib.lib(tzapp_syscall.o)
    0x00056ac4   0x00000008   Ven    RO         5628    Veneer$$Code        anon$$obj.o
    0x00056acc   0x00000008   Ven    RO         5629    Veneer$$Code        anon$$obj.o
    0x00056ad4   0x00000008   Ven    RO         5630    Veneer$$Code        anon$$obj.o
    0x00056adc   0x00000008   Ven    RO         5631    Veneer$$Code        anon$$obj.o
    0x00056ae4   0x00000008   Ven    RO         5632    Veneer$$Code        anon$$obj.o
    0x00056aec   0x00000013   Data   RO            9    .constdata          tz_main.o
    0x00056aff   0x000000e0   Data   RO          121    .constdata          tz_ta_crypto_static.o
    0x00056bdf   0x00000103   Data   RO          122    .constdata          tz_ta_crypto_static.o
    0x00056ce2   0x00000080   Data   RO          497    .constdata          ss_key_management_skmm_key_generation.o
    0x00056d62   0x0000007b   Data   RO          628    .constdata          X509v3_base64_decoder.o
    0x00056ddd   0x00000011   Data   RO         1088    .constdata          cache_table.o
    0x00056dee   0x00000013   Data   RO         1127    .constdata          odex.o
    0x00056e01   0x0000002c   Data   RO         1601    .constdata          dsa_lib.o
    0x00056e2d   0x00000011   Data   RO         2210    .constdata          crypto_core.lib(mem_clr.o)
    0x00056e3e   0x00000031   Data   RO         2413    .constdata          crypto_core.lib(asn1_lib.o)
    0x00056e6f   0x0000002f   Data   RO         2552    .constdata          crypto_core.lib(rsa_lib.o)
    0x00056e9e   0x00000036   Data   RO         2823    .constdata          crypto_core.lib(bn_lib.o)
    0x00056ed4   0x00000033   Data   RO         3072    .constdata          crypto_core.lib(sha512.o)
    0x00056f07   0x00000033   Data   RO         3095    .constdata          crypto_core.lib(sha256.o)
    0x00056f3a   0x00000031   Data   RO         3254    .constdata          crypto_core.lib(lhash.o)
    0x00056f6b   0x00000031   Data   RO         3421    .constdata          crypto_core.lib(stack.o)
    0x00056f9c   0x00000030   Data   RO         3726    .constdata          crypto_core.lib(sha1dgst.o)
    0x00056fcc   0x00000020   Data   RO         3934    .constdata          crypto_core.lib(ctr_drbg.o)
    0x00056fec   0x00000060   Data   RO         4393    .constdata          crypto_core.lib(fips_ecdsa_selftest.o)
    0x0005704c   0x00003524   Data   RO         4529    .constdata          crypto_core.lib(fips_drbg_selftest.o)
    0x0005a570   0x000005a9   Data   RO         4593    .constdata          crypto_core.lib(fips_rsa_selftest.o)
    0x0005ab19   0x000000f0   Data   RO         4611    .constdata          crypto_core.lib(fips_sha1_selftest.o)
    0x0005ac09   0x000001fb   Data   RO         4634    .constdata          crypto_core.lib(fips_aes_selftest.o)
    0x0005ae04   0x00000050   Data   RO         4669    .constdata          crypto_core.lib(fips_des_selftest.o)
    0x0005ae54   0x00000028   Data   RO         5100    .constdata          c_2e.l(_printf_hex_int_ll_ptr.o)
    0x0005ae7c   0x00000011   Data   RO         5120    .constdata          c_2e.l(__printf_flags_ss_wp.o)
    0x0005ae8d   0x00000004   Data   RO         5367    .constdata          c_2e.l(sys_io.o)
    0x0005ae91   0x00000004   Data   RO         5368    .constdata          c_2e.l(sys_io.o)
    0x0005ae95   0x00000004   Data   RO         5369    .constdata          c_2e.l(sys_io.o)
    0x0005ae99   0x00000001   PAD
    0x0005ae9a   0x00001000   Data   RO         2787    .constdata          crypto_core.lib(bn_prime.o)
    0x0005be9a   0x00000002   PAD
    0x0005be9c   0x000000f8   Data   RO          278    .constdata          tz_key_wrapping.o
    0x0005bf94   0x0000180c   Data   RO          303    .constdata          tz_ta_sstorage_service.o
    0x0005d7a0   0x000000f3   Data   RO          406    .constdata          ss_key_encryption.o
    0x0005d893   0x00000001   PAD
    0x0005d894   0x000001c8   Data   RO          520    .constdata          ss_key_management_lsm.o
    0x0005da5c   0x00000056   Data   RO          540    .constdata          ss_key_management_helper_functions.o
    0x0005dab2   0x00000002   PAD
    0x0005dab4   0x000000ea   Data   RO          655    .constdata          tz_ta_sstorage_secdrv_interface.o
    0x0005db9e   0x00000002   PAD
    0x0005dba0   0x000003ec   Data   RO          754    .constdata          ss_memory_internal.o
    0x0005df8c   0x0000178d   Data   RO          911    .constdata          task.o
    0x0005f719   0x00000003   PAD
    0x0005f71c   0x00000170   Data   RO          986    .constdata          ss_parse_ustack.o
    0x0005f88c   0x00000340   Data   RO         1010    .constdata          ss_config.o
    0x0005fbcc   0x00000133   Data   RO         1045    .constdata          gaf.o
    0x0005fcff   0x00000001   PAD
    0x0005fd00   0x0000024c   Data   RO         1071    .constdata          dmp.o
    0x0005ff4c   0x0000004d   Data   RO         1146    .constdata          tz_prng.o
    0x0005ff99   0x00000003   PAD
    0x0005ff9c   0x0000087a   Data   RO         1165    .constdata          selftest.o
    0x00060816   0x00000002   PAD
    0x00060818   0x000004f0   Data   RO         1208    .constdata          ss_mapped_regions_registry.o
    0x00060d08   0x000000b4   Data   RO         1296    .constdata          ECDH.o
    0x00060dbc   0x00000164   Data   RO         1444    .constdata          ss_ta_asymmetric_crypto_api.o
    0x00060f20   0x000000a0   Data   RO         1469    .constdata          dsa_gen.o
    0x00060fc0   0x0000009d   Data   RO         1548    .constdata          dsa_asn1.o
    0x0006105d   0x00000003   PAD
    0x00061060   0x0000009c   Data   RO         1602    .constdata          dsa_lib.o
    0x000610fc   0x0000009d   Data   RO         1626    .constdata          dsa_ossl.o
    0x00061199   0x00000003   PAD
    0x0006119c   0x0000008d   Data   RO         1690    .constdata          vmem_64.o
    0x00061229   0x00000003   PAD
    0x0006122c   0x000000a6   Data   RO         1714    .constdata          kernel_stack_64.o
    0x000612d2   0x00000002   PAD
    0x000612d4   0x00000085   Data   RO         2186    .constdata          crypto_core.lib(pd_rand.o)
    0x00061359   0x00000003   PAD
    0x0006135c   0x00000080   Data   RO         2234    .constdata          crypto_core.lib(tasn_dec.o)
    0x000613dc   0x0000007a   Data   RO         2270    .constdata          crypto_core.lib(a_dup.o)
    0x00061456   0x00000002   PAD
    0x00061458   0x00000080   Data   RO         2344    .constdata          crypto_core.lib(tasn_enc.o)
    0x000614d8   0x00000080   Data   RO         2414    .constdata          crypto_core.lib(asn1_lib.o)
    0x00061558   0x00000080   Data   RO         2432    .constdata          crypto_core.lib(tasn_new.o)
    0x000615d8   0x00000078   Data   RO         2446    .constdata          crypto_core.lib(ex_data.o)
    0x00061650   0x0000008c   Data   RO         2478    .constdata          crypto_core.lib(mem.o)
    0x000616dc   0x00000094   Data   RO         2507    .constdata          crypto_core.lib(rsa_sign.o)
    0x00061770   0x0000007c   Data   RO         2553    .constdata          crypto_core.lib(rsa_lib.o)
    0x000617ec   0x00000094   Data   RO         2626    .constdata          crypto_core.lib(bn_ctx.o)
    0x00061880   0x000000b4   Data   RO         2661    .constdata          crypto_core.lib(bn_exp.o)
    0x00061934   0x00000094   Data   RO         2708    .constdata          crypto_core.lib(bn_mont.o)
    0x000619c8   0x0000009c   Data   RO         2767    .constdata          crypto_core.lib(bn_rand.o)
    0x00061a64   0x000001ac   Data   RO         2824    .constdata          crypto_core.lib(bn_lib.o)
    0x00061c10   0x000000a8   Data   RO         2841    .constdata          crypto_core.lib(ec_key.o)
    0x00061cb8   0x000000c8   Data   RO         2872    .constdata          crypto_core.lib(ec_lib.o)
    0x00061d80   0x00000094   Data   RO         2969    .constdata          crypto_core.lib(hmac.o)
    0x00061e14   0x000000b6   Data   RO         2993    .constdata          crypto_core.lib(gcm128.o)
    0x00061eca   0x00000002   PAD
    0x00061ecc   0x00000098   Data   RO         3021    .constdata          crypto_core.lib(rsa_gen.o)
    0x00061f64   0x000000ac   Data   RO         3073    .constdata          crypto_core.lib(sha512.o)
    0x00062010   0x000000ac   Data   RO         3096    .constdata          crypto_core.lib(sha256.o)
    0x000620bc   0x000000a8   Data   RO         3120    .constdata          crypto_core.lib(fips_md.o)
    0x00062164   0x0000007c   Data   RO         3255    .constdata          crypto_core.lib(lhash.o)
    0x000621e0   0x00000080   Data   RO         3275    .constdata          crypto_core.lib(a_object.o)
    0x00062260   0x0000007d   Data   RO         3288    .constdata          crypto_core.lib(tasn_utl.o)
    0x000622dd   0x00000003   PAD
    0x000622e0   0x0000007c   Data   RO         3313    .constdata          crypto_core.lib(a_int.o)
    0x0006235c   0x00000080   Data   RO         3361    .constdata          crypto_core.lib(a_bitstr.o)
    0x000623dc   0x0000007c   Data   RO         3422    .constdata          crypto_core.lib(stack.o)
    0x00062458   0x00000080   Data   RO         3437    .constdata          crypto_core.lib(buffer.o)
    0x000624d8   0x000041c8   Data   RO         3454    .constdata          crypto_core.lib(obj_dat.o)
    0x000666a0   0x0000007c   Data   RO         3475    .constdata          crypto_core.lib(b_print.o)
    0x0006671c   0x00000094   Data   RO         3493    .constdata          crypto_core.lib(rand_lib.o)
    0x000667b0   0x00000094   Data   RO         3575    .constdata          crypto_core.lib(bn_recp.o)
    0x00066844   0x00000095   Data   RO         3631    .constdata          crypto_core.lib(bn_blind.o)
    0x000668d9   0x00000003   PAD
    0x000668dc   0x000000ac   Data   RO         3661    .constdata          crypto_core.lib(ec_mult.o)
    0x00066988   0x000010fc   Data   RO         3674    .constdata          crypto_core.lib(ec_curve.o)
    0x00067a84   0x000000f8   Data   RO         3700    .constdata          crypto_core.lib(rsa_eay.o)
    0x00067b7c   0x000000ac   Data   RO         3775    .constdata          crypto_core.lib(fips_drbg_lib.o)
    0x00067c28   0x000000c0   Data   RO         3834    .constdata          crypto_core.lib(fips_rand.o)
    0x00067ce8   0x0000008c   Data   RO         3868    .constdata          crypto_core.lib(fips.o)
    0x00067d74   0x000000ac   Data   RO         3902    .constdata          crypto_core.lib(fips_post.o)
    0x00067e20   0x00000020   Data   RO         3988    .constdata          crypto_core.lib(bn_kron.o)
    0x00067e40   0x0000007f   Data   RO         4077    .constdata          crypto_core.lib(o_names.o)
    0x00067ebf   0x00000001   PAD
    0x00067ec0   0x00000080   Data   RO         4100    .constdata          crypto_core.lib(obj_lib.o)
    0x00067f40   0x00000097   Data   RO         4156    .constdata          crypto_core.lib(ech_ossl.o)
    0x00067fd7   0x00000001   PAD
    0x00067fd8   0x00000098   Data   RO         4217    .constdata          crypto_core.lib(rsa_oaep.o)
    0x00068070   0x0000010c   Data   RO         4323    .constdata          crypto_core.lib(fips_enc.o)
    0x0006817c   0x00000147   Data   RO         4342    .constdata          crypto_core.lib(fips_ecdh_selftest.o)
    0x000682c3   0x00000001   PAD
    0x000682c4   0x000000ec   Data   RO         4370    .constdata          crypto_core.lib(fips_ecdsa_sign.o)
    0x000683b0   0x00000174   Data   RO         4410    .constdata          crypto_core.lib(fips_hmac_selftest.o)
    0x00068524   0x000001e0   Data   RO         4462    .constdata          crypto_core.lib(fips_drbg_ec.o)
    0x00068704   0x000000b3   Data   RO         4488    .constdata          crypto_core.lib(fips_drbg_hmac.o)
    0x000687b7   0x00000001   PAD
    0x000687b8   0x000000bc   Data   RO         4516    .constdata          crypto_core.lib(fips_drbg_hash.o)
    0x00068874   0x000001b8   Data   RO         4571    .constdata          crypto_core.lib(fips_rsa_sign.o)
    0x00068a2c   0x000002c0   Data   RO         4650    .constdata          crypto_core.lib(fips_cmac_selftest.o)
    0x00068cec   0x000000ec   Data   RO         4689    .constdata          crypto_core.lib(cmac.o)
    0x00068dd8   0x000000c8   Data   RO         4794    .constdata          crypto_core.lib(e_aes.o)
    0x00068ea0   0x000000a0   Data   RO         4823    .constdata          crypto_core.lib(rsa_pss.o)
    0x00068f40   0x00000098   Data   RO         4848    .constdata          crypto_core.lib(fips_rsa_lib.o)
    0x00068fd8   0x000009c0   Data   RO         4876    .constdata          crypto_core.lib(set_key.o)
    0x00069998   0x00000800   Data   RO         4901    .constdata          crypto_core.lib(des_enc.o)
    0x0006a198   0x00000095   Data   RO         4959    .constdata          crypto_core.lib(ecp_smpl.o)
    0x0006a22d   0x00000003   PAD
    0x0006a230   0x00000004   Data   RO         5000    .constdata          crypto_core.lib(xts128.o)
    0x0006a234   0x00000004   Data   RO         5013    .constdata          crypto_core.lib(ctr128.o)
    0x0006a238   0x00000008   Data   RO         5240    .constdata          c_2e.l(_printf_wctomb.o)
    0x0006a240   0x00000110   Data   RO         5274    locale$$data        c_2e.l(lc_ctype_c.o)
    0x0006a350   0x00000094   Data   RO         5432    .constdata          c_2e.l(bigflt0.o)
    0x0006a3e4   0x0000001c   Data   RO         5469    locale$$data        c_2e.l(lc_numeric_c.o)
    0x0006a400   0x00000080   Data   RO          808    .constdata          ss_SKEIN.o
    0x0006a480   0x00000004   Data   RO         1047    .init_array         gaf.o
    0x0006a484   0x00000004   Data   RO         1518    .init_array         x_long.o
    0x0006a488   0x00000004   Data   RO         1550    .init_array         dsa_asn1.o
    0x0006a48c   0x00000004   Data   RO         1628    .init_array         dsa_ossl.o
    0x0006a490   0x00000004   Data   RO         1998    .init_array         tzapp_entrylib.lib(tzapp_lib_main.o)
    0x0006a494   0x00000004   Data   RO         2369    .init_array         crypto_core.lib(tasn_typ.o)
    0x0006a498   0x00000004   Data   RO         2390    .init_array         crypto_core.lib(x_bignum.o)
    0x0006a49c   0x00000004   Data   RO         2448    .init_array         crypto_core.lib(ex_data.o)
    0x0006a4a0   0x00000004   Data   RO         2480    .init_array         crypto_core.lib(mem.o)
    0x0006a4a4   0x00000004   Data   RO         2826    .init_array         crypto_core.lib(bn_lib.o)
    0x0006a4a8   0x00000004   Data   RO         2944    .init_array         crypto_core.lib(m_sha1.o)
    0x0006a4ac   0x00000004   Data   RO         3122    .init_array         crypto_core.lib(fips_md.o)
    0x0006a4b0   0x00000004   Data   RO         3190    .init_array         crypto_core.lib(ctr_drbg_ossl.o)
    0x0006a4b4   0x00000004   Data   RO         3329    .init_array         crypto_core.lib(x_sig.o)
    0x0006a4b8   0x00000004   Data   RO         3456    .init_array         crypto_core.lib(obj_dat.o)
    0x0006a4bc   0x00000004   Data   RO         3542    .init_array         crypto_core.lib(o_init.o)
    0x0006a4c0   0x00000004   Data   RO         3676    .init_array         crypto_core.lib(ec_curve.o)
    0x0006a4c4   0x00000004   Data   RO         3702    .init_array         crypto_core.lib(rsa_eay.o)
    0x0006a4c8   0x00000004   Data   RO         3807    .init_array         crypto_core.lib(fips_drbg_rand.o)
    0x0006a4cc   0x00000004   Data   RO         3836    .init_array         crypto_core.lib(fips_rand.o)
    0x0006a4d0   0x00000004   Data   RO         3954    .init_array         crypto_core.lib(x_algor.o)
    0x0006a4d4   0x00000004   Data   RO         4026    .init_array         crypto_core.lib(ecs_asn1.o)
    0x0006a4d8   0x00000004   Data   RO         4158    .init_array         crypto_core.lib(ech_ossl.o)
    0x0006a4dc   0x00000004   Data   RO         4289    .init_array         crypto_core.lib(fips_mem.o)
    0x0006a4e0   0x00000004   Data   RO         4325    .init_array         crypto_core.lib(fips_enc.o)
    0x0006a4e4   0x00000004   Data   RO         4344    .init_array         crypto_core.lib(fips_ecdh_selftest.o)
    0x0006a4e8   0x00000004   Data   RO         4395    .init_array         crypto_core.lib(fips_ecdsa_selftest.o)
    0x0006a4ec   0x00000004   Data   RO         4531    .init_array         crypto_core.lib(fips_drbg_selftest.o)
    0x0006a4f0   0x00000004   Data   RO         4714    .init_array         crypto_core.lib(ecp_mont.o)
    0x0006a4f4   0x00000004   Data   RO         4728    .init_array         crypto_core.lib(ecs_ossl.o)
    0x0006a4f8   0x00000004   Data   RO         4753    .init_array         crypto_core.lib(e_des3.o)
    0x0006a4fc   0x00000004   Data   RO         4796    .init_array         crypto_core.lib(e_aes.o)
    0x0006a500   0x00000004   Data   RO         4961    .init_array         crypto_core.lib(ecp_smpl.o)



  Load Region TZ_TEST_APP_DATA (Base: 0x0006b000, Size: 0x000082dc, Max: 0xffffffff, PI)

    Execution Region TZ_APP_RW (Base: 0x0006b000, Size: 0x00017ef4, Max: 0xffffffff, PI)

    Base Addr    Size         Type   Attr      Idx    E Section Name        Object

    0x0006b000   0x00000004   Data   RW         5623    PDT$$ptr            anon$$obj.o
    0x0006b004   0x0000000c   Data   RW           10    .data               tz_main.o
    0x0006b010   0x00000008   Data   RW           11    .data               tz_main.o
    0x0006b018   0x00000027   Data   RW          279    .data               tz_key_wrapping.o
    0x0006b03f   0x00000001   PAD
    0x0006b040   0x0000000c   Data   RW          304    .data               tz_ta_sstorage_service.o
    0x0006b04c   0x00000138   Data   RW          444    .data               ss_lable_processing.o
    0x0006b184   0x00000050   Data   RW          656    .data               tz_ta_sstorage_secdrv_interface.o
    0x0006b1d4   0x00000004   Data   RW          672    .data               stub_secdrv.o
    0x0006b1d8   0x00000004   Data   RW          755    .data               ss_memory_internal.o
    0x0006b1dc   0x00000100   Data   RW          838    .data               ss_SHORT_SHA256.o
    0x0006b2dc   0x00000004   Data   RW          866    .data               ss_helper_functions.o
    0x0006b2e0   0x00000020   Data   RW          891    .data               ss_key_generation.o
    0x0006b300   0x00000018   Data   RW          912    .data               task.o
    0x0006b318   0x00000008   Data   RW          987    .data               ss_parse_ustack.o
    0x0006b320   0x00000008   Data   RW         1011    .data               ss_config.o
    0x0006b328   0x00000008   Data   RW         1046    .data               gaf.o
    0x0006b330   0x00000004   Data   RW         1089    .data               cache_table.o
    0x0006b334   0x00000050   Data   RW         1166    .data               selftest.o
    0x0006b384   0x00000004   Data   RW         1184    .data               cryptolog.o
    0x0006b388   0x00000004   Data   RW         1209    .data               ss_mapped_regions_registry.o
    0x0006b38c   0x00000004   Data   RW         1224    .data               dumpdrv_hw_hal.o
    0x0006b390   0x0000003c   Data   RW         1517    .data               x_long.o
    0x0006b3cc   0x000001e4   Data   RW         1549    .data               dsa_asn1.o
    0x0006b5b0   0x00000004   Data   RW         1603    .data               dsa_lib.o
    0x0006b5b4   0x00000030   Data   RW         1627    .data               dsa_ossl.o
    0x0006b5e4   0x00000004   PAD
    0x0006b5e8   0x00000008   Data   RW         1691    .data               vmem_64.o
    0x0006b5f0   0x00000004   Data   RW         1692    .data               vmem_64.o
    0x0006b5f4   0x00000004   Data   RW         1693    .data               vmem_64.o
    0x0006b5f8   0x00000014   Data   RW         1694    .data               vmem_64.o
    0x0006b60c   0x00000004   Data   RW         1695    .data               vmem_64.o
    0x0006b610   0x00000004   Data   RW         1696    .data               vmem_64.o
    0x0006b614   0x00000056   Data   RW         1997    .data               tzapp_entrylib.lib(tzapp_lib_main.o)
    0x0006b66a   0x00000002   PAD
    0x0006b66c   0x00000004   Data   RW         2187    .data               crypto_core.lib(pd_rand.o)
    0x0006b670   0x00000001   Data   RW         2211    .data               crypto_core.lib(mem_clr.o)
    0x0006b671   0x00000003   PAD
    0x0006b674   0x0000031c   Data   RW         2368    .data               crypto_core.lib(tasn_typ.o)
    0x0006b990   0x00000058   Data   RW         2389    .data               crypto_core.lib(x_bignum.o)
    0x0006b9e8   0x00000024   Data   RW         2447    .data               crypto_core.lib(ex_data.o)
    0x0006ba0c   0x0000003c   Data   RW         2479    .data               crypto_core.lib(mem.o)
    0x0006ba48   0x00000004   Data   RW         2554    .data               crypto_core.lib(rsa_lib.o)
    0x0006ba4c   0x00000034   Data   RW         2825    .data               crypto_core.lib(bn_lib.o)
    0x0006ba80   0x0000017c   Data   RW         2943    .data               crypto_core.lib(m_sha1.o)
    0x0006bbfc   0x0000004c   Data   RW         3121    .data               crypto_core.lib(fips_md.o)
    0x0006bc48   0x0000000c   Data   RW         3146    .data               crypto_core.lib(fips_rand_lib.o)
    0x0006bc54   0x0000001c   Data   RW         3189    .data               crypto_core.lib(ctr_drbg_ossl.o)
    0x0006bc70   0x00000004   Data   RW         3228    .data               crypto_core.lib(ech_lib.o)
    0x0006bc74   0x00000044   Data   RW         3328    .data               crypto_core.lib(x_sig.o)
    0x0006bcb8   0x0000564c   Data   RW         3455    .data               crypto_core.lib(obj_dat.o)
    0x00071304   0x00000010   Data   RW         3494    .data               crypto_core.lib(rand_lib.o)
    0x00071314   0x00000004   Data   RW         3541    .data               crypto_core.lib(o_init.o)
    0x00071318   0x00000190   Data   RW         3675    .data               crypto_core.lib(ec_curve.o)
    0x000714a8   0x00000038   Data   RW         3701    .data               crypto_core.lib(rsa_eay.o)
    0x000714e0   0x00000004   Data   RW         3776    .data               crypto_core.lib(fips_drbg_lib.o)
    0x000714e4   0x00000018   Data   RW         3806    .data               crypto_core.lib(fips_drbg_rand.o)
    0x000714fc   0x0000001c   Data   RW         3835    .data               crypto_core.lib(fips_rand.o)
    0x00071518   0x00000020   Data   RW         3869    .data               crypto_core.lib(fips.o)
    0x00071538   0x0000000c   Data   RW         3903    .data               crypto_core.lib(fips_post.o)
    0x00071544   0x00000074   Data   RW         3953    .data               crypto_core.lib(x_algor.o)
    0x000715b8   0x00000044   Data   RW         4025    .data               crypto_core.lib(ecs_asn1.o)
    0x000715fc   0x00000008   Data   RW         4078    .data               crypto_core.lib(o_names.o)
    0x00071604   0x00000028   Data   RW         4157    .data               crypto_core.lib(ech_ossl.o)
    0x0007162c   0x00000008   Data   RW         4265    .data               crypto_core.lib(fips_lck.o)
    0x00071634   0x00000008   Data   RW         4288    .data               crypto_core.lib(fips_mem.o)
    0x0007163c   0x00000008   Data   RW         4309    .data               crypto_core.lib(fips_err.o)
    0x00071644   0x00000034   Data   RW         4324    .data               crypto_core.lib(fips_enc.o)
    0x00071678   0x00000034   Data   RW         4343    .data               crypto_core.lib(fips_ecdh_selftest.o)
    0x000716ac   0x00000020   Data   RW         4394    .data               crypto_core.lib(fips_ecdsa_selftest.o)
    0x000716cc   0x00000021   Data   RW         4437    .data               crypto_core.lib(fips_drbg_ctr.o)
    0x000716ed   0x00000002   Data   RW         4489    .data               crypto_core.lib(fips_drbg_hmac.o)
    0x000716ef   0x00000001   PAD
    0x000716f0   0x000011ac   Data   RW         4530    .data               crypto_core.lib(fips_drbg_selftest.o)
    0x0007289c   0x000000d8   Data   RW         4546    .data               crypto_core.lib(fips_rand_selftest.o)
    0x00072974   0x0000009c   Data   RW         4713    .data               crypto_core.lib(ecp_mont.o)
    0x00072a10   0x00000030   Data   RW         4727    .data               crypto_core.lib(ecs_ossl.o)
    0x00072a40   0x00000208   Data   RW         4752    .data               crypto_core.lib(e_des3.o)
    0x00072c48   0x000005e4   Data   RW         4795    .data               crypto_core.lib(e_aes.o)
    0x0007322c   0x00000004   Data   RW         4877    .data               crypto_core.lib(set_key.o)
    0x00073230   0x0000009c   Data   RW         4960    .data               crypto_core.lib(ecp_smpl.o)
    0x000732cc   0x00000004   Data   RW         5271    .data               c_2e.l(stdio_streams.o)
    0x000732d0   0x00000004   Data   RW         5272    .data               c_2e.l(stdio_streams.o)
    0x000732d4   0x00000004   Data   RW         5273    .data               c_2e.l(stdio_streams.o)
    0x000732d8   0x00000004   Data   RW         5590    .data               c_2e.l(heapauxa.o)
    0x000732dc   0x00000640   Zero   RW          246    .bss                stub_secrsa.o
    0x0007391c   0x0000631c   Zero   RW          302    .bss                tz_ta_sstorage_service.o
    0x00079c38   0x00001000   Zero   RW          364    .bss                ss_key_destruction.o
    0x0007ac38   0x00000080   Zero   RW          443    .bss                ss_lable_processing.o
    0x0007acb8   0x0000012c   Zero   RW          496    .bss                ss_key_management_skmm_key_generation.o
    0x0007ade4   0x00002158   Zero   RW          654    .bss                tz_ta_sstorage_secdrv_interface.o
    0x0007cf3c   0x0000007d   Zero   RW          753    .bss                ss_memory_internal.o
    0x0007cfb9   0x00000007   PAD
    0x0007cfc0   0x00002178   Zero   RW          909    .bss                task.o
    0x0007f138   0x00001068   Zero   RW          910    .bss                task.o
    0x000801a0   0x00001578   Zero   RW          985    .bss                ss_parse_ustack.o
    0x00081718   0x000000a8   Zero   RW         1044    .bss                gaf.o
    0x000817c0   0x0000000b   Zero   RW         1070    .bss                dmp.o
    0x000817cb   0x00000005   PAD
    0x000817d0   0x00000078   Zero   RW         1145    .bss                tz_prng.o
    0x00081848   0x00000ac4   Zero   RW         1183    .bss                cryptolog.o
    0x0008230c   0x00000004   PAD
    0x00082310   0x000001b0   Zero   RW         1207    .bss                ss_mapped_regions_registry.o
    0x000824c0   0x00000168   Zero   RW         1996    .bss                tzapp_entrylib.lib(tzapp_lib_main.o)
    0x00082628   0x00000081   Zero   RW         2209    .bss                crypto_core.lib(mem_clr.o)
    0x000826a9   0x00000040   Zero   RW         2968    .bss                crypto_core.lib(hmac.o)
    0x000826e9   0x00000070   Zero   RW         3071    .bss                crypto_core.lib(sha512.o)
    0x00082759   0x0000003c   Zero   RW         3094    .bss                crypto_core.lib(sha256.o)
    0x00082795   0x00000003   PAD
    0x00082798   0x00000088   Zero   RW         3188    .bss                crypto_core.lib(ctr_drbg_ossl.o)
    0x00082820   0x00000010   Zero   RW         3492    .bss                crypto_core.lib(rand_lib.o)
    0x00082830   0x0000041c   Zero   RW         3805    .bss                crypto_core.lib(fips_drbg_rand.o)
    0x00082c4c   0x00000150   Zero   RW         3833    .bss                crypto_core.lib(fips_rand.o)
    0x00082d9c   0x00000040   Zero   RW         3867    .bss                crypto_core.lib(fips.o)
    0x00082ddc   0x00000014   Zero   RW         5219    .bss                c_2e.l(rt_locale.o)
    0x00082df0   0x00000054   Zero   RW         5268    .bss                c_2e.l(stdio_streams.o)
    0x00082e44   0x00000054   Zero   RW         5269    .bss                c_2e.l(stdio_streams.o)
    0x00082e98   0x00000054   Zero   RW         5270    .bss                c_2e.l(stdio_streams.o)
    0x00082eec   0x00000004   Zero   RW         5511    .bss                c_2e.l(rt_heap_descriptor.o)
    0x00082ef0   0x00000004   Zero   RW         5599    .bss                c_2e.l(rt_errno_addr.o)


    Execution Region TZ_APP_STACK (Base: 0x00082ef4, Size: 0x0000a000, Max: 0x0000a000, PI, UNINIT)

    Base Addr    Size         Type   Attr      Idx    E Section Name        Object

    0x00082ef4   0x0000a000   Zero   RW            1    TZ_APP_STACK.bss    anon$$obj.o


    Execution Region TZ_APP_HEAP (Base: 0x0008cef4, Size: 0x00100000, Max: 0x00100000, PI, UNINIT)

    Base Addr    Size         Type   Attr      Idx    E Section Name        Object

    0x0008cef4   0x00100000   Zero   RW            2    TZ_APP_HEAP.bss     anon$$obj.o


==============================================================================

Image component sizes


      Code (inc. data)   RO Data    RW Data    ZI Data      Debug   Object Name

       230          0          0          0          0       4061   AES.o
       860         68        180          0          0      26089   ECDH.o
       606          0          0          0          0      16530   RSA.o
       410          0        123          0          0       3411   X509v3_base64_decoder.o
      1538          0          0          0          0       4757   X509v3_verify.o
       604         14          0          0          0       4832   asn1.o
       824         70         17          4          0       6045   cache_table.o
      1032        136          0          4       2756       5578   cryptolog.o
      1304        190        588          0         11       4848   dmp.o
       884         62        161        484          0      20530   dsa_asn1.o
      2880          0        160          0          0      32732   dsa_gen.o
       226          0          0          0          0       9620   dsa_key.o
       556          0        200          4          0      15920   dsa_lib.o
      2744         20        161         48          0      23482   dsa_ossl.o
        16          0          0          0          0       8485   dsa_sign.o
        10          0          0          0          0       7620   dsa_vrf.o
       164          0          0          4          0       2695   dumpdrv_hw_hal.o
       676        132        311          8        168       6132   gaf.o
        24          0          0          0          0       1810   gen_entropy.o
       792        132        166          0          0       4177   kernel_stack_64.o
       732        142         19          0          0       2265   odex.o
       198         30          0          0          0        894   opcode.o
      2100        322       2170         80          0       8081   selftest.o
        46          0          0          0          0       1161   ss_CryptoCore_init.o
        36          0          0          0          0       2970   ss_SHA256.o
        36          0          0          0          0       1986   ss_SHA512.o
      4498          0          0        256          0      10377   ss_SHORT_SHA256.o
      8994          0        128          0          0      18143   ss_SKEIN.o
        42          0          0          0          0       5179   ss_aes.o
       452          0          0          0          0       5714   ss_asn1.o
      6350        180        832          8          0      16901   ss_config.o
      1120        128          0          0          0       3777   ss_discrete_hannover_transform.o
       100          0          0          0          0       2232   ss_encoder.o
        26          0          0          0          0       1379   ss_fips.o
       400          0          0          0          0       5536   ss_hash.o
        28          0          0          4          0       1524   ss_helper_functions.o
       132          0          0          0       4096       1980   ss_key_destruction.o
       576          6        243          0          0       3917   ss_key_encryption.o
       252          0          0         32          0       3319   ss_key_generation.o
       348          0          0          0          0       7050   ss_key_management.o
       328          4         86          0          0       4190   ss_key_management_helper_functions.o
       478          0          0          0          0       3200   ss_key_management_hmac_key_generation.o
      4272        270        456          0          0      12288   ss_key_management_lsm.o
       218          0          0          0          0       2588   ss_key_management_provisioned_key_wrapper.o
      2140         56        128          0        300      11253   ss_key_management_skmm_key_generation.o
      1020          0          0          0          0       6929   ss_key_management_wrapper.o
      3530          0          0        312        128       6699   ss_lable_processing.o
      2024        160       1264          4        432       6948   ss_mapped_regions_registry.o
      2016        140       1004          4        125       6370   ss_memory_internal.o
       312          0          0          0          0       2649   ss_memory_management.o
      2884        328        368          8       5496      13723   ss_parse_ustack.o
       350          0          0          0          0       4461   ss_process_ss_id.o
      3848        132        356          0          0      15212   ss_ta_asymmetric_crypto_api.o
       178          0          0          4          0       7148   stub_secdrv.o
        14          0          0          0       1600       5147   stub_secrsa.o
     26518       2484       6029         24      12768      62811   task.o
       624         62        248         39          0       5773   tz_key_wrapping.o
       300         68         19         20          0      12830   tz_main.o
      1416          4         77          0        120       7541   tz_prng.o
      1714          0          0          0          0      11404   tz_ta_crypto_api_common.o
       622          0        483          0          0      98064   tz_ta_crypto_static.o
      2916         24        234         80       8536      11473   tz_ta_sstorage_secdrv_interface.o
     19690       1128       6156         12      25372      51883   tz_ta_sstorage_service.o
       124          0          0          0          0        680   tzapp_entry.o
      1952        194        141         44          0       9145   vmem_64.o
       400          8          4         60          0      47518   x_long.o

    ----------------------------------------------------------------------
    122784       6694      22537       1556    1151460     741666   Object Totals
        40          0          0          4    1089536          0   (incl. Generated)
        10          0         25          5         16          0   (incl. Padding)

    ----------------------------------------------------------------------

      Code (inc. data)   RO Data    RW Data    ZI Data      Debug   Library Member Name

        28          6          0          0          0         84   __2printf.o
        56          6          0          0          0         88   __2snprintf.o
        44          6          0          0          0         84   __2sprintf.o
       392          6         17          0          0         88   __printf_flags_ss_wp.o
        14          0          0          0          0         68   __printf_wp.o
         6          0          0          0          0          0   _printf_a.o
         6          0          0          0          0          0   _printf_c.o
        44          0          0          0          0        108   _printf_char.o
        48          6          0          0          0         96   _printf_char_common.o
        36          4          0          0          0         80   _printf_char_file.o
        42          0          0          0          0         68   _printf_charcount.o
         6          0          0          0          0          0   _printf_d.o
       116         18          0          0          0         92   _printf_dec.o
         6          0          0          0          0          0   _printf_e.o
         6          0          0          0          0          0   _printf_f.o
      1048          0          0          0          0        208   _printf_fp_dec.o
       128         16          0          0          0         84   _printf_fp_infnan.o
         6          0          0          0          0          0   _printf_g.o
       156          6         40          0          0        160   _printf_hex_int_ll_ptr.o
         6          0          0          0          0          0   _printf_i.o
       184          0          0          0          0         88   _printf_intcommon.o
        10          0          0          0          0          0   _printf_l.o
         6          0          0          0          0          0   _printf_lc.o
        10          0          0          0          0          0   _printf_ll.o
         6          0          0          0          0          0   _printf_lld.o
         6          0          0          0          0          0   _printf_lli.o
         6          0          0          0          0          0   _printf_llo.o
         6          0          0          0          0          0   _printf_llu.o
         6          0          0          0          0          0   _printf_llx.o
       120         16          0          0          0         92   _printf_longlong_dec.o
         6          0          0          0          0          0   _printf_ls.o
         6          0          0          0          0          0   _printf_n.o
         6          0          0          0          0          0   _printf_o.o
       120          8          0          0          0        124   _printf_oct_int_ll.o
         6          0          0          0          0          0   _printf_p.o
        82          0          0          0          0        108   _printf_pad.o
         0          0          0          0          0          0   _printf_percent.o
         4          0          0          0          0          0   _printf_percent_end.o
         6          0          0          0          0          0   _printf_s.o
        82          0          0          0          0         80   _printf_str.o
        36          0          0          0          0         84   _printf_truncate.o
         6          0          0          0          0          0   _printf_u.o
        44          0          0          0          0        108   _printf_wchar.o
       184          6          8          0          0         88   _printf_wctomb.o
         6          0          0          0          0          0   _printf_x.o
        16          0          0          0          0         68   _snputc.o
        10          0          0          0          0         68   _sputc.o
        64          0          0          0          0         92   _wcrtomb.o
        16          0          0          0          0         64   aeabi_memset.o
       604          0          0          0          0        136   aeabi_sdivfast_rs.o
       216          6        148          0          0         96   bigflt0.o
      1910        128          0          0          0        640   btod.o
        52          6          0          0          0         80   c89vsnprintf.o
        10          0          0          0          0         68   defsig_exit.o
        50          0          0          0          0         88   defsig_general.o
        80         58          0          0          0         76   defsig_rtmem_inner.o
        14          0          0          0          0         80   defsig_rtmem_outer.o
        52         38          0          0          0         76   defsig_rtred_inner.o
        14          0          0          0          0         80   defsig_rtred_outer.o
        76          0          0          0          0         88   fclose.o
         8          0          0          0          0         68   ferror.o
       478          0          0          0          0         88   flsbuf.o
       236          4          0          0          0        128   fopen.o
        26          0          0          0          0         68   fputc.o
       248          4          0          0          0         84   fseek.o
        70          0          0          0          0         76   ftell.o
        94          0          0          0          0         80   h1_alloc.o
        50          0          0          0          0         68   h1_extend.o
        78          0          0          0          0         80   h1_free.o
        14          0          0          0          0         84   h1_init.o
        80          4          0          4          0         96   heapauxa.o
         4          0          0          0          0        136   hguard.o
         0          0          0          0          0          0   indicate_semi.o
        36         10          0          0          0         80   init_aeabi.o
       136          0          0          0          0        168   init_alloc.o
       348         44          0          0          0        112   initio.o
        44         10        272          0          0         72   lc_ctype_c.o
        44         10         28          0          0         72   lc_numeric_c.o
         0          0          0          0          0          0   libinit2.o
         0          0          0          0          0          0   libshutdown2.o
       152          0          0          0          0         76   lludiv10.o
       816         64          0          0          0         80   lludiv5.o
        38          0          0          0          0         64   llushr.o
         0          0          0          0          0          0   maybetermalloc1.o
        48          0          0          0          0         68   memchr.o
        88          0          0          0          0         76   memcmp.o
        12          0          0          0          0         72   memcpy.o
       610          0          0          0          0        132   qsortnoex.o
        16          4          0          0          0         72   rt_ctype_table.o
        12          4          0          0          4         64   rt_errno_addr.o
        12          4          0          0          4         64   rt_heap_descriptor.o
        12          4          0          0         20         64   rt_locale.o
        68          0          0          0          0         64   rt_memclr.o
        78          0          0          0          0         76   rt_memclr_w.o
       216          0          0          0          0         64   rt_memcpy.o
       124          0          0          0          0         92   rt_memcpy_w_qsp.o
       212          0          0          0          0         64   rt_memmove.o
       128          0          0          0          0         76   rt_memmove_w.o
        44          0          0          0          0         64   rtudiv10.o
        70          0          0          0          0         80   setvbuf.o
       240          6          0          0          0        156   stdio.o
         0          0          0         12        252          0   stdio_streams.o
        20          0          0          0          0         68   strchr.o
       164          4          0          0          0         76   strcmp.o
        70          0          0          0          0         80   strcpy.o
        58          0          0          0          0         68   strlen.o
       240          4          0          0          0         80   strncmp.o
       108          4          0          0          0         72   strncpy.o
        36          0          0          0          0         80   strstr.o
        12          4          0          0          0         68   sys_exit.o
       102          0         12          0          0        240   sys_io.o
        14          0          0          0          0         76   sys_wrch.o
        22          0          0          0          0         64   uread4.o
         2          0          0          0          0         64   use_no_semi.o
        22          0          0          0          0         64   uwrite4.o
       744          0        128          0          0       4764   a_bitstr.o
       180          0        122          0          0      57693   a_dup.o
      1296          0        124          0          0       7476   a_int.o
       384          0        128          0          0       2783   a_object.o
       220         10          0          0          0       2859   a_type.o
      4728       2628          0          0          0       1384   aes-armv4-cc.o
        60          0          0          0          0       1599   aes_cbc.o
       472          4          0          0          0        684   armv4-mont-cc.o
      1376         34        177          0          0      11043   asn1_lib.o
      2856         68        124          0          0       9593   b_print.o
       702          0          0          0          0      10500   bn_add.o
      5238          0          0          0          0      14738   bn_asm.o
       796          0        149          0          0      12334   bn_blind.o
       772          0        148          0          0      16082   bn_ctx.o
       940          0          0          0          0       4818   bn_div.o
      3522         12        180          0          0      22380   bn_exp.o
      1926          0          0          0          0       9234   bn_gcd.o
       490          0         32          0          0       6875   bn_kron.o
      2162         12        486         52          0      15081   bn_lib.o
       682          0          0          0          0       7122   bn_mod.o
      1352          0        148          0          0      18085   bn_mont.o
      4064         30          0          0          0      13598   bn_mul.o
      1916          0       4096          0          0      16928   bn_prime.o
       700          4        156          0          0      10808   bn_rand.o
       710          0        148          0          0       5535   bn_recp.o
       704          0          0          0          0      10268   bn_shift.o
       700          0          0          0          0       4575   bn_sqr.o
      1378          0          0          0          0      10826   bn_sqrt.o
       548          0          0          0          0       4419   bn_word.o
       186          0        128          0          0       6733   buffer.o
        14          0          0          0          0      10368   c_all.o
         2          0          0          0          0        530   c_allc.o
       100         46          0          0          0       1558   c_alld.o
       500          0          0          0          0       2352   cbc128.o
      1882          0          0          0          0       7909   ccm128.o
       866          0          0          0          0       3871   cfb128.o
      1420         40          0          0          0       4560   cfb64ede.o
      1172         48        236          0          0      16875   cmac.o
         2          0          0          0          0        690   cryptlib.o
        30          0          0          0          0      71293   cryptolib_init.o
       546          0          4          0          0       3822   ctr128.o
      1366          0         32          0          0       7829   ctr_drbg.o
       798          0          4         28        136       7863   ctr_drbg_ossl.o
     11510         40       2048          0          0      28029   des_enc.o
      4132         18        204       1508          0      34425   e_aes.o
      1198          0          4        520          0      25627   e_des3.o
      1948        756       4352        400          0      17513   ec_curve.o
        68          0          0          0          0      12954   ec_cvt.o
      1896         40        168          0          0      41207   ec_key.o
      3498         30        200          0          0      36809   ec_lib.o
      3440          8        172          0          0      12918   ec_mult.o
       392          0          0          0          0      14980   ec_oct.o
       130          0          0          0          0       2008   ecb3_enc.o
        38          0          0          0          0      10724   ech_key.o
        40          0          0          4          0      10634   ech_lib.o
       636         22        155         40          0      17668   ech_ossl.o
      1012          0          4        156          0       6317   ecp_mont.o
      1692          0          0          0          0      18399   ecp_oct.o
      5888          0        153        156          0      27792   ecp_smpl.o
       152         22          4         68          0      13858   ecs_asn1.o
      2084         26          4         48          0      19014   ecs_ossl.o
         6          0          0          0          0        983   err.o
       104          0          0          0          0       3476   evp_lib.o
      1724          0        124         36          0      17222   ex_data.o
       976        212        140         32         64      18867   fips.o
      1324          0        507          0          0       6142   fips_aes_selftest.o
       318          0        704          0          0       3381   fips_cmac_selftest.o
       112          0         80          0          0       1968   fips_des_selftest.o
      1572          0          0         33          0      19501   fips_drbg_ctr.o
      1776         22        480          0          0      22356   fips_drbg_ec.o
      1532         46        188          0          0       7694   fips_drbg_hash.o
      1252         18        179          2          0      19922   fips_drbg_hmac.o
      1728         12        172          4          0      24812   fips_drbg_lib.o
       382          0          4         24       1052      16421   fips_drbg_rand.o
      6036          0      13608       4524          0      39505   fips_drbg_selftest.o
       554          0        331         52          0      14433   fips_ecdh_selftest.o
       260          0        100         32          0       2930   fips_ecdsa_selftest.o
       380          4        236          0          0      13566   fips_ecdsa_sign.o
      1976        420        272         52          0       8930   fips_enc.o
        82          0          0          8          0       2186   fips_err.o
       306          0        372          0          0      13217   fips_hmac_selftest.o
        82          0          0          8          0      12369   fips_lck.o
      1228        246        172         76          0      16351   fips_md.o
        90          0          4          8          0       2346   fips_mem.o
      1244         46        172         12          0       8738   fips_post.o
      1080         38        196         28        336      16927   fips_rand.o
       548          0          0         12          0      15587   fips_rand_lib.o
       308          0          0        216          0       3209   fips_rand_selftest.o
       164          0        152          0          0       1921   fips_rsa_lib.o
       300         18       1449          0          0       3056   fips_rsa_selftest.o
      1686         30        440          0          0      20650   fips_rsa_sign.o
       100         12        240          0          0      11601   fips_sha1_selftest.o
      4506          0        182          0          0      15141   gcm128.o
       628         32          0          0          0        832   ghash-armv4-cc.o
       792         68        148          0         64      15874   hmac.o
      1054          0        173          0          0       6988   lhash.o
        22          0          0          0          0       1293   libc_functions.o
       354          0          4        380          0      15596   m_sha1.o
      1552          6        144         60          0      10513   mem.o
       204         16         17          1        129       1762   mem_clr.o
       126          0          0          0          0       2295   names.o
        96         38          0          0          0      13578   o_fips.o
       118          0          4          4          0        818   o_init.o
       450          0        127          8          0       4814   o_names.o
     46468      21714      16844      22092          0      13714   obj_dat.o
       298          0        128          0          0       2358   obj_lib.o
       206          0          0          0          0       2689   ofb128.o
       322          0          0          0          0       2422   ofb64ede.o
        58          0        133          4          0       1134   pd_rand.o
       556         20        148         16         16      14794   rand_lib.o
       116         26          0          0          0        764   rand_poll_target.o
       622          0          0          0          0      15044   rsa_crpt.o
      3996         28        252         56          0      25048   rsa_eay.o
      1480         24        152          0          0      18158   rsa_gen.o
       684          0        171          4          0      14924   rsa_lib.o
       140          0          0          0          0       1376   rsa_none.o
       932          0        152          0          0      16724   rsa_oaep.o
       578          0          0          0          0       3394   rsa_pk1.o
      1008          0        160          0          0      17154   rsa_pss.o
      1180         12        148          0          0      49677   rsa_sign.o
       360          0          0          0          0       2144   rsa_ssl.o
       316          0          0          0          0       2218   rsa_x931.o
       632          0       2496          4          0       4652   set_key.o
      1372         16          0          0          0        940   sha1-armv4-large-cc.o
       480          0         48          0          0       6026   sha1dgst.o
      4176        256          0          0          0       1632   sha256-armv4-cc.o
       856          6        223          0         60       7206   sha256.o
      1848        640          0          0          0        892   sha512-armv4-cc.o
      1156          4        223          0        112       5402   sha512.o
       798          0        173          0          0       7976   stack.o
      4480         48        128          0          0      42160   tasn_dec.o
      2242         20        128          0          0      23790   tasn_enc.o
       608          8          0          0          0      14058   tasn_fre.o
       846         16        128          0          0       5550   tasn_new.o
      2528        466          4        796          0      38093   tasn_typ.o
       428          0        125          0          0       5223   tasn_utl.o
        22          0          0          0          0       6717   thr_id.o
       480         62          4        116          0      25813   x_algor.o
       292          8          4         88          0      13291   x_bignum.o
       168         28          4         68          0      23119   x_sig.o
       710          0          4          0          0       2909   xts128.o
       826         16          0          0          0        356   daddsub_clz.o
        24          0          0          0          0         68   dcmpi.o
        94          4          0          0          0         92   dfix.o
        46          0          0          0          0         68   dflt_clz.o
       120          4          0          0          0         92   dleqf.o
       340         12          0          0          0        104   dmul.o
       156          4          0          0          0         92   dnaninf.o
        12          0          0          0          0         68   dretinf.o
       108          0          0          0          0         80   drleqf.o
         4          0          0          0          0         68   printf1.o
         0          0          0          0          0          0   usenofp.o
        40          0          0          0          0         68   fpclassify.o
       102          0          0          0          0       1429   qsee_cache_shim.o
       966          0          0          0          0      13273   qsee_crypto_shim.o
      1628         12          4         86        360      23680   tzapp_lib_main.o
       196          0          0          0          0        676   tzapp_syscall.o
      2518          0          0          0          0      72670   prxy_services.o

    ----------------------------------------------------------------------
    232268      29164      57871      31944       2612    1831161   Library Totals
        66          0         23          6          3          0   (incl. Padding)

    ----------------------------------------------------------------------

      Code (inc. data)   RO Data    RW Data    ZI Data      Debug   Library Name

     12192        528        525         16        280       8108   c_2e.l
    212830      28584      57319      31836       1969    1710169   crypto_core.lib
      1730         40          0          0          0       1088   fz_2s.l
        40          0          0          0          0         68   m_2s.l
      2892         12          4         86        360      39058   tzapp_entrylib.lib
      2518          0          0          0          0      72670   tzlib_proxy.lib

    ----------------------------------------------------------------------
    232268      29164      57871      31944       2612    1831161   Library Totals

    ----------------------------------------------------------------------

==============================================================================


      Code (inc. data)   RO Data    RW Data    ZI Data      Debug   

    355052      35858      80408      33500    1154072    2554567   Grand Totals
    355052      35858      80408      33500    1154072    2554567   ELF Image Totals
    355052      35858      80408      33500          0          0   ROM Totals

==============================================================================

    Total RO  Size (Code + RO Data)               435460 ( 425.25kB)
    Total RW  Size (RW Data + ZI Data)           1187572 (1159.74kB)
    Total ROM Size (Code + RO Data + RW Data)     468960 ( 457.97kB)

==============================================================================

